
ucos_bcm2835.elf:     file format elf32-littlearm


Disassembly of section .init:

00008000 <_start>:
    8000:	e59ff018 	ldr	pc, [pc, #24]	; 8020 <reset_handler>
    8004:	e59ff018 	ldr	pc, [pc, #24]	; 8024 <undefined_handler>
    8008:	e59ff018 	ldr	pc, [pc, #24]	; 8028 <swi_handler>
    800c:	e59ff018 	ldr	pc, [pc, #24]	; 802c <prefetch_handler>
    8010:	e59ff018 	ldr	pc, [pc, #24]	; 8030 <data_handler>
    8014:	e59ff018 	ldr	pc, [pc, #24]	; 8034 <unused_handler>
    8018:	e59ff018 	ldr	pc, [pc, #24]	; 8038 <irq_handler>
    801c:	e59ff018 	ldr	pc, [pc, #24]	; 803c <fiq_handler>

00008020 <reset_handler>:
    8020:	00008040 	andeq	r8, r0, r0, asr #32

00008024 <undefined_handler>:
    8024:	00010000 	andeq	r0, r1, r0

00008028 <swi_handler>:
    8028:	00010004 	andeq	r0, r1, r4

0000802c <prefetch_handler>:
    802c:	00010008 	andeq	r0, r1, r8

00008030 <data_handler>:
    8030:	0001000c 	andeq	r0, r1, ip

00008034 <unused_handler>:
    8034:	00010010 	andeq	r0, r1, r0, lsl r0

00008038 <irq_handler>:
    8038:	00010618 	andeq	r0, r1, r8, lsl r6

0000803c <fiq_handler>:
    803c:	00010014 	andeq	r0, r1, r4, lsl r0

00008040 <reset>:
    8040:	e3a00902 	mov	r0, #32768	; 0x8000
    8044:	e3a01000 	mov	r1, #0
    8048:	e8b003fc 	ldm	r0!, {r2, r3, r4, r5, r6, r7, r8, r9}
    804c:	e8a103fc 	stmia	r1!, {r2, r3, r4, r5, r6, r7, r8, r9}
    8050:	e8b003fc 	ldm	r0!, {r2, r3, r4, r5, r6, r7, r8, r9}
    8054:	e8a103fc 	stmia	r1!, {r2, r3, r4, r5, r6, r7, r8, r9}
    8058:	e3a000d2 	mov	r0, #210	; 0xd2
    805c:	e121f000 	msr	CPSR_c, r0
    8060:	e3a0d902 	mov	sp, #32768	; 0x8000
    8064:	e3a000df 	mov	r0, #223	; 0xdf
    8068:	e121f000 	msr	CPSR_c, r0
    806c:	e3a0d901 	mov	sp, #16384	; 0x4000
    8070:	e59f0018 	ldr	r0, [pc, #24]	; 8090 <zero_loop+0x14>
    8074:	e59f1018 	ldr	r1, [pc, #24]	; 8094 <zero_loop+0x18>
    8078:	e3a02000 	mov	r2, #0

0000807c <zero_loop>:
    807c:	e1500001 	cmp	r0, r1
    8080:	b4802004 	strlt	r2, [r0], #4
    8084:	bafffffc 	blt	807c <zero_loop>
    8088:	eb0020f0 	bl	10450 <DisableInterrupts>
    808c:	ea00307b 	b	14280 <main>
    8090:	00015ca0 	andeq	r5, r1, r0, lsr #25
    8094:	0001950c 	andeq	r9, r1, ip, lsl #10

Disassembly of section .text:

00010000 <undefined_instruction>:
   10000:	eafffffe 	b	10000 <undefined_instruction>

00010004 <swi>:
   10004:	eafffffe 	b	10004 <swi>

00010008 <prefetch_abort>:
   10008:	eafffffe 	b	10008 <prefetch_abort>

0001000c <data_abort>:
   1000c:	eafffffe 	b	1000c <data_abort>

00010010 <unused>:
   10010:	eafffffe 	b	10010 <unused>

00010014 <fiq>:
   10014:	eafffffe 	b	10014 <fiq>

00010018 <hang>:
   10018:	eafffffe 	b	10018 <hang>

0001001c <PUT32>:
   1001c:	e5801000 	str	r1, [r0]
   10020:	e12fff1e 	bx	lr

00010024 <GET32>:
   10024:	e5900000 	ldr	r0, [r0]
   10028:	e12fff1e 	bx	lr

0001002c <dummy>:
   1002c:	e12fff1e 	bx	lr

00010030 <uart_lcr>:
   10030:	e59f0000 	ldr	r0, [pc]	; 10038 <uart_lcr+0x8>
   10034:	eafffffa 	b	10024 <GET32>
   10038:	20215054 	eorcs	r5, r1, r4, asr r0

0001003c <uart_recv>:
   1003c:	e92d4008 	push	{r3, lr}
   10040:	e59f0018 	ldr	r0, [pc, #24]	; 10060 <uart_recv+0x24>
   10044:	ebfffff6 	bl	10024 <GET32>
   10048:	e3100001 	tst	r0, #1
   1004c:	0afffffb 	beq	10040 <uart_recv+0x4>
   10050:	e59f000c 	ldr	r0, [pc, #12]	; 10064 <uart_recv+0x28>
   10054:	ebfffff2 	bl	10024 <GET32>
   10058:	e6ef0070 	uxtb	r0, r0
   1005c:	e8bd8008 	pop	{r3, pc}
   10060:	20215054 	eorcs	r5, r1, r4, asr r0
   10064:	20215040 	eorcs	r5, r1, r0, asr #32

00010068 <uart_send>:
   10068:	e92d4010 	push	{r4, lr}
   1006c:	e1a04000 	mov	r4, r0
   10070:	e59f0018 	ldr	r0, [pc, #24]	; 10090 <uart_send+0x28>
   10074:	ebffffea 	bl	10024 <GET32>
   10078:	e3100020 	tst	r0, #32
   1007c:	0afffffb 	beq	10070 <uart_send+0x8>
   10080:	e59f000c 	ldr	r0, [pc, #12]	; 10094 <uart_send+0x2c>
   10084:	e1a01004 	mov	r1, r4
   10088:	e8bd4010 	pop	{r4, lr}
   1008c:	eaffffe2 	b	1001c <PUT32>
   10090:	20215054 	eorcs	r5, r1, r4, asr r0
   10094:	20215040 	eorcs	r5, r1, r0, asr #32

00010098 <uart_flush>:
   10098:	e92d4008 	push	{r3, lr}
   1009c:	e59f000c 	ldr	r0, [pc, #12]	; 100b0 <uart_flush+0x18>
   100a0:	ebffffdf 	bl	10024 <GET32>
   100a4:	e3100c01 	tst	r0, #256	; 0x100
   100a8:	1afffffb 	bne	1009c <uart_flush+0x4>
   100ac:	e8bd8008 	pop	{r3, pc}
   100b0:	20215054 	eorcs	r5, r1, r4, asr r0

000100b4 <hexstrings>:
   100b4:	e92d4038 	push	{r3, r4, r5, lr}
   100b8:	e1a05000 	mov	r5, r0
   100bc:	e3a04020 	mov	r4, #32
   100c0:	e2444004 	sub	r4, r4, #4
   100c4:	e1a03435 	lsr	r3, r5, r4
   100c8:	e203300f 	and	r3, r3, #15
   100cc:	e3530009 	cmp	r3, #9
   100d0:	82830037 	addhi	r0, r3, #55	; 0x37
   100d4:	92830030 	addls	r0, r3, #48	; 0x30
   100d8:	ebffffe2 	bl	10068 <uart_send>
   100dc:	e3540000 	cmp	r4, #0
   100e0:	1afffff6 	bne	100c0 <hexstrings+0xc>
   100e4:	e3a00020 	mov	r0, #32
   100e8:	e8bd4038 	pop	{r3, r4, r5, lr}
   100ec:	eaffffdd 	b	10068 <uart_send>

000100f0 <hexstring>:
   100f0:	e92d4008 	push	{r3, lr}
   100f4:	ebffffee 	bl	100b4 <hexstrings>
   100f8:	e3a0000d 	mov	r0, #13
   100fc:	ebffffd9 	bl	10068 <uart_send>
   10100:	e3a0000a 	mov	r0, #10
   10104:	e8bd4008 	pop	{r3, lr}
   10108:	eaffffd6 	b	10068 <uart_send>

0001010c <uart_init>:
   1010c:	e92d4010 	push	{r4, lr}
   10110:	e59f00d4 	ldr	r0, [pc, #212]	; 101ec <uart_init+0xe0>
   10114:	e3a01001 	mov	r1, #1
   10118:	ebffffbf 	bl	1001c <PUT32>
   1011c:	e59f00cc 	ldr	r0, [pc, #204]	; 101f0 <uart_init+0xe4>
   10120:	e3a01000 	mov	r1, #0
   10124:	ebffffbc 	bl	1001c <PUT32>
   10128:	e59f00c4 	ldr	r0, [pc, #196]	; 101f4 <uart_init+0xe8>
   1012c:	e3a01000 	mov	r1, #0
   10130:	ebffffb9 	bl	1001c <PUT32>
   10134:	e59f00bc 	ldr	r0, [pc, #188]	; 101f8 <uart_init+0xec>
   10138:	e3a01003 	mov	r1, #3
   1013c:	ebffffb6 	bl	1001c <PUT32>
   10140:	e59f00b4 	ldr	r0, [pc, #180]	; 101fc <uart_init+0xf0>
   10144:	e3a01000 	mov	r1, #0
   10148:	ebffffb3 	bl	1001c <PUT32>
   1014c:	e59f009c 	ldr	r0, [pc, #156]	; 101f0 <uart_init+0xe4>
   10150:	e3a01000 	mov	r1, #0
   10154:	ebffffb0 	bl	1001c <PUT32>
   10158:	e59f00a0 	ldr	r0, [pc, #160]	; 10200 <uart_init+0xf4>
   1015c:	e3a010c6 	mov	r1, #198	; 0xc6
   10160:	ebffffad 	bl	1001c <PUT32>
   10164:	e59f1098 	ldr	r1, [pc, #152]	; 10204 <uart_init+0xf8>
   10168:	e59f0098 	ldr	r0, [pc, #152]	; 10208 <uart_init+0xfc>
   1016c:	ebffffaa 	bl	1001c <PUT32>
   10170:	e59f0094 	ldr	r0, [pc, #148]	; 1020c <uart_init+0x100>
   10174:	ebffffaa 	bl	10024 <GET32>
   10178:	e3c01a3f 	bic	r1, r0, #258048	; 0x3f000
   1017c:	e3811a12 	orr	r1, r1, #73728	; 0x12000
   10180:	e59f0084 	ldr	r0, [pc, #132]	; 1020c <uart_init+0x100>
   10184:	ebffffa4 	bl	1001c <PUT32>
   10188:	e59f0080 	ldr	r0, [pc, #128]	; 10210 <uart_init+0x104>
   1018c:	e3a01000 	mov	r1, #0
   10190:	ebffffa1 	bl	1001c <PUT32>
   10194:	e3a04000 	mov	r4, #0
   10198:	e1a00004 	mov	r0, r4
   1019c:	e2844001 	add	r4, r4, #1
   101a0:	ebffffa1 	bl	1002c <dummy>
   101a4:	e3540096 	cmp	r4, #150	; 0x96
   101a8:	1afffffa 	bne	10198 <uart_init+0x8c>
   101ac:	e59f0060 	ldr	r0, [pc, #96]	; 10214 <uart_init+0x108>
   101b0:	e3a01903 	mov	r1, #49152	; 0xc000
   101b4:	ebffff98 	bl	1001c <PUT32>
   101b8:	e3a04000 	mov	r4, #0
   101bc:	e1a00004 	mov	r0, r4
   101c0:	e2844001 	add	r4, r4, #1
   101c4:	ebffff98 	bl	1002c <dummy>
   101c8:	e3540096 	cmp	r4, #150	; 0x96
   101cc:	1afffffa 	bne	101bc <uart_init+0xb0>
   101d0:	e59f003c 	ldr	r0, [pc, #60]	; 10214 <uart_init+0x108>
   101d4:	e3a01000 	mov	r1, #0
   101d8:	ebffff8f 	bl	1001c <PUT32>
   101dc:	e59f0010 	ldr	r0, [pc, #16]	; 101f4 <uart_init+0xe8>
   101e0:	e3a01003 	mov	r1, #3
   101e4:	e8bd4010 	pop	{r4, lr}
   101e8:	eaffff8b 	b	1001c <PUT32>
   101ec:	20215004 	eorcs	r5, r1, r4
   101f0:	20215044 	eorcs	r5, r1, r4, asr #32
   101f4:	20215060 	eorcs	r5, r1, r0, rrx
   101f8:	2021504c 	eorcs	r5, r1, ip, asr #32
   101fc:	20215050 	eorcs	r5, r1, r0, asr r0
   10200:	20215048 	eorcs	r5, r1, r8, asr #32
   10204:	0000010e 	andeq	r0, r0, lr, lsl #2
   10208:	20215068 	eorcs	r5, r1, r8, rrx
   1020c:	20200004 	eorcs	r0, r0, r4
   10210:	20200094 	mlacs	r0, r4, r0, r0
   10214:	20200098 	mlacs	r0, r8, r0, r0

00010218 <uart_string>:
   10218:	e92d4010 	push	{r4, lr}
   1021c:	e1a04000 	mov	r4, r0
   10220:	e5d00000 	ldrb	r0, [r0]
   10224:	e3500000 	cmp	r0, #0
   10228:	0a000003 	beq	1023c <uart_string+0x24>
   1022c:	ebffff8d 	bl	10068 <uart_send>
   10230:	e5f40001 	ldrb	r0, [r4, #1]!
   10234:	e3500000 	cmp	r0, #0
   10238:	1afffffb 	bne	1022c <uart_string+0x14>
   1023c:	e3a0000d 	mov	r0, #13
   10240:	ebffff88 	bl	10068 <uart_send>
   10244:	e3a0000a 	mov	r0, #10
   10248:	e8bd4010 	pop	{r4, lr}
   1024c:	eaffff85 	b	10068 <uart_send>

00010250 <tickISR>:
   10250:	e92d4008 	push	{r3, lr}
   10254:	eb000243 	bl	10b68 <OSTimeTick>
   10258:	e59f3008 	ldr	r3, [pc, #8]	; 10268 <tickISR+0x18>
   1025c:	e3a02000 	mov	r2, #0
   10260:	e583240c 	str	r2, [r3, #1036]	; 0x40c
   10264:	e8bd8008 	pop	{r3, pc}
   10268:	2000b000 	andcs	fp, r0, r0

0001026c <timer_init>:
   1026c:	e92d40f8 	push	{r3, r4, r5, r6, r7, lr}
   10270:	e3a00040 	mov	r0, #64	; 0x40
   10274:	eb000067 	bl	10418 <DisableInterrupt>
   10278:	e59f5040 	ldr	r5, [pc, #64]	; 102c0 <timer_init+0x54>
   1027c:	e59f3040 	ldr	r3, [pc, #64]	; 102c4 <timer_init+0x58>
   10280:	e59f2040 	ldr	r2, [pc, #64]	; 102c8 <timer_init+0x5c>
   10284:	e59f1040 	ldr	r1, [pc, #64]	; 102cc <timer_init+0x60>
   10288:	e59f6040 	ldr	r6, [pc, #64]	; 102d0 <timer_init+0x64>
   1028c:	e3a0783e 	mov	r7, #4063232	; 0x3e0000
   10290:	e3a040f9 	mov	r4, #249	; 0xf9
   10294:	e3a0c000 	mov	ip, #0
   10298:	e3a00040 	mov	r0, #64	; 0x40
   1029c:	e5837408 	str	r7, [r3, #1032]	; 0x408
   102a0:	e5856200 	str	r6, [r5, #512]	; 0x200
   102a4:	e5832400 	str	r2, [r3, #1024]	; 0x400
   102a8:	e5832418 	str	r2, [r3, #1048]	; 0x418
   102ac:	e583441c 	str	r4, [r3, #1052]	; 0x41c
   102b0:	e583c40c 	str	ip, [r3, #1036]	; 0x40c
   102b4:	e5831408 	str	r1, [r3, #1032]	; 0x408
   102b8:	e8bd40f8 	pop	{r3, r4, r5, r6, r7, lr}
   102bc:	ea000049 	b	103e8 <EnableInterrupt>
   102c0:	00015cb8 			; <UNDEFINED> instruction: 0x00015cb8
   102c4:	2000b000 	andcs	fp, r0, r0
   102c8:	000003e7 	andeq	r0, r0, r7, ror #7
   102cc:	003e00a2 	eorseq	r0, lr, r2, lsr #1
   102d0:	00010250 	andeq	r0, r1, r0, asr r2

000102d4 <stubHandler>:
   102d4:	e12fff1e 	bx	lr

000102d8 <OS_CPU_IRQ_ISR_Handler>:
   102d8:	e59f1090 	ldr	r1, [pc, #144]	; 10370 <OS_CPU_IRQ_ISR_Handler+0x98>
   102dc:	e92d4008 	push	{r3, lr}
   102e0:	e59f208c 	ldr	r2, [pc, #140]	; 10374 <OS_CPU_IRQ_ISR_Handler+0x9c>
   102e4:	e5913200 	ldr	r3, [r1, #512]	; 0x200
   102e8:	e0032002 	and	r2, r3, r2
   102ec:	e3520000 	cmp	r2, #0
   102f0:	1a00000b 	bne	10324 <OS_CPU_IRQ_ISR_Handler+0x4c>
   102f4:	e3130c01 	tst	r3, #256	; 0x100
   102f8:	1a000016 	bne	10358 <OS_CPU_IRQ_ISR_Handler+0x80>
   102fc:	e1a02003 	mov	r2, r3
   10300:	e3130c02 	tst	r3, #512	; 0x200
   10304:	08bd8008 	popeq	{r3, pc}
   10308:	e59f3060 	ldr	r3, [pc, #96]	; 10370 <OS_CPU_IRQ_ISR_Handler+0x98>
   1030c:	e3520000 	cmp	r2, #0
   10310:	e5933208 	ldr	r3, [r3, #520]	; 0x208
   10314:	13a0003f 	movne	r0, #63	; 0x3f
   10318:	11a03002 	movne	r3, r2
   1031c:	1a000001 	bne	10328 <OS_CPU_IRQ_ISR_Handler+0x50>
   10320:	e8bd8008 	pop	{r3, pc}
   10324:	e3a0005f 	mov	r0, #95	; 0x5f
   10328:	e2431001 	sub	r1, r3, #1
   1032c:	e59f2044 	ldr	r2, [pc, #68]	; 10378 <OS_CPU_IRQ_ISR_Handler+0xa0>
   10330:	e0213003 	eor	r3, r1, r3
   10334:	e16f3f13 	clz	r3, r3
   10338:	e0633000 	rsb	r3, r3, r0
   1033c:	e7923183 	ldr	r3, [r2, r3, lsl #3]
   10340:	e3530000 	cmp	r3, #0
   10344:	08bd8008 	popeq	{r3, pc}
   10348:	e0822180 	add	r2, r2, r0, lsl #3
   1034c:	e5921004 	ldr	r1, [r2, #4]
   10350:	e12fff33 	blx	r3
   10354:	e8bd8008 	pop	{r3, pc}
   10358:	e5912204 	ldr	r2, [r1, #516]	; 0x204
   1035c:	e3520000 	cmp	r2, #0
   10360:	0affffe6 	beq	10300 <OS_CPU_IRQ_ISR_Handler+0x28>
   10364:	e1a03002 	mov	r3, r2
   10368:	e3a0001f 	mov	r0, #31
   1036c:	eaffffed 	b	10328 <OS_CPU_IRQ_ISR_Handler+0x50>
   10370:	2000b000 	andcs	fp, r0, r0
   10374:	00000cff 	strdeq	r0, [r0], -pc	; <UNPREDICTABLE>
   10378:	00015cb8 			; <UNDEFINED> instruction: 0x00015cb8

0001037c <InitInterruptController>:
   1037c:	e3a03000 	mov	r3, #0
   10380:	e59f2024 	ldr	r2, [pc, #36]	; 103ac <InitInterruptController+0x30>
   10384:	e59fc024 	ldr	ip, [pc, #36]	; 103b0 <InitInterruptController+0x34>
   10388:	e1a00003 	mov	r0, r3
   1038c:	e782c003 	str	ip, [r2, r3]
   10390:	e0821003 	add	r1, r2, r3
   10394:	e2833008 	add	r3, r3, #8
   10398:	e3530d09 	cmp	r3, #576	; 0x240
   1039c:	e5810004 	str	r0, [r1, #4]
   103a0:	1afffff9 	bne	1038c <InitInterruptController+0x10>
   103a4:	e3a00000 	mov	r0, #0
   103a8:	e12fff1e 	bx	lr
   103ac:	00015cb8 			; <UNDEFINED> instruction: 0x00015cb8
   103b0:	000102d4 	ldrdeq	r0, [r1], -r4

000103b4 <RegisterInterrupt>:
   103b4:	e10f0000 	mrs	r0, CPSR
   103b8:	e3800080 	orr	r0, r0, #128	; 0x80
   103bc:	e121f000 	msr	CPSR_c, r0
   103c0:	e59f301c 	ldr	r3, [pc, #28]	; 103e4 <RegisterInterrupt+0x30>
   103c4:	e083c180 	add	ip, r3, r0, lsl #3
   103c8:	e7831180 	str	r1, [r3, r0, lsl #3]
   103cc:	e58c2004 	str	r2, [ip, #4]
   103d0:	e10f0000 	mrs	r0, CPSR
   103d4:	e3c00080 	bic	r0, r0, #128	; 0x80
   103d8:	e121f000 	msr	CPSR_c, r0
   103dc:	e3a00000 	mov	r0, #0
   103e0:	e12fff1e 	bx	lr
   103e4:	00015cb8 			; <UNDEFINED> instruction: 0x00015cb8

000103e8 <EnableInterrupt>:
   103e8:	e59f3024 	ldr	r3, [pc, #36]	; 10414 <EnableInterrupt+0x2c>
   103ec:	e2400040 	sub	r0, r0, #64	; 0x40
   103f0:	e5932218 	ldr	r2, [r3, #536]	; 0x218
   103f4:	e3500008 	cmp	r0, #8
   103f8:	93a02001 	movls	r2, #1
   103fc:	91a00012 	lslls	r0, r2, r0
   10400:	95830218 	strls	r0, [r3, #536]	; 0x218
   10404:	e59f3008 	ldr	r3, [pc, #8]	; 10414 <EnableInterrupt+0x2c>
   10408:	e3a00000 	mov	r0, #0
   1040c:	e5933218 	ldr	r3, [r3, #536]	; 0x218
   10410:	e12fff1e 	bx	lr
   10414:	2000b000 	andcs	fp, r0, r0

00010418 <DisableInterrupt>:
   10418:	e2400040 	sub	r0, r0, #64	; 0x40
   1041c:	e3500008 	cmp	r0, #8
   10420:	93a03001 	movls	r3, #1
   10424:	91a00013 	lslls	r0, r3, r0
   10428:	959f3008 	ldrls	r3, [pc, #8]	; 10438 <DisableInterrupt+0x20>
   1042c:	95830224 	strls	r0, [r3, #548]	; 0x224
   10430:	e3a00000 	mov	r0, #0
   10434:	e12fff1e 	bx	lr
   10438:	2000b000 	andcs	fp, r0, r0

0001043c <EnableInterrupts>:
   1043c:	e10f0000 	mrs	r0, CPSR
   10440:	e3c00080 	bic	r0, r0, #128	; 0x80
   10444:	e121f000 	msr	CPSR_c, r0
   10448:	e3a00000 	mov	r0, #0
   1044c:	e12fff1e 	bx	lr

00010450 <DisableInterrupts>:
   10450:	e10f0000 	mrs	r0, CPSR
   10454:	e3800080 	orr	r0, r0, #128	; 0x80
   10458:	e121f000 	msr	CPSR_c, r0
   1045c:	e3a00000 	mov	r0, #0
   10460:	e12fff1e 	bx	lr

00010464 <OSCtxSw>:
   10464:	e52de004 	push	{lr}		; (str lr, [sp, #-4]!)
   10468:	e52de004 	push	{lr}		; (str lr, [sp, #-4]!)
   1046c:	e52dc004 	push	{ip}		; (str ip, [sp, #-4]!)
   10470:	e52db004 	push	{fp}		; (str fp, [sp, #-4]!)
   10474:	e52da004 	push	{sl}		; (str sl, [sp, #-4]!)
   10478:	e52d9004 	push	{r9}		; (str r9, [sp, #-4]!)
   1047c:	e52d8004 	push	{r8}		; (str r8, [sp, #-4]!)
   10480:	e52d7004 	push	{r7}		; (str r7, [sp, #-4]!)
   10484:	e52d6004 	push	{r6}		; (str r6, [sp, #-4]!)
   10488:	e52d5004 	push	{r5}		; (str r5, [sp, #-4]!)
   1048c:	e52d4004 	push	{r4}		; (str r4, [sp, #-4]!)
   10490:	e52d3004 	push	{r3}		; (str r3, [sp, #-4]!)
   10494:	e52d2004 	push	{r2}		; (str r2, [sp, #-4]!)
   10498:	e52d1004 	push	{r1}		; (str r1, [sp, #-4]!)
   1049c:	e52d0004 	push	{r0}		; (str r0, [sp, #-4]!)
   104a0:	e10f4000 	mrs	r4, CPSR
   104a4:	e52d4004 	push	{r4}		; (str r4, [sp, #-4]!)
   104a8:	e59f424c 	ldr	r4, [pc, #588]	; 106fc <OS_CPU_IRQ_ISR_1+0x54>
   104ac:	e5945000 	ldr	r5, [r4]
   104b0:	e585d000 	str	sp, [r5]
   104b4:	eb0000c8 	bl	107dc <OSTaskSwHook>
   104b8:	e59f4240 	ldr	r4, [pc, #576]	; 10700 <OS_CPU_IRQ_ISR_1+0x58>
   104bc:	e59f5240 	ldr	r5, [pc, #576]	; 10704 <OS_CPU_IRQ_ISR_1+0x5c>
   104c0:	e5d56000 	ldrb	r6, [r5]
   104c4:	e5c46000 	strb	r6, [r4]
   104c8:	e59f422c 	ldr	r4, [pc, #556]	; 106fc <OS_CPU_IRQ_ISR_1+0x54>
   104cc:	e59f6234 	ldr	r6, [pc, #564]	; 10708 <OS_CPU_IRQ_ISR_1+0x60>
   104d0:	e5966000 	ldr	r6, [r6]
   104d4:	e5846000 	str	r6, [r4]
   104d8:	e596d000 	ldr	sp, [r6]
   104dc:	e49d4004 	pop	{r4}		; (ldr r4, [sp], #4)
   104e0:	e12ff004 	msr	CPSR_fsxc, r4
   104e4:	e49d0004 	pop	{r0}		; (ldr r0, [sp], #4)
   104e8:	e49d1004 	pop	{r1}		; (ldr r1, [sp], #4)
   104ec:	e49d2004 	pop	{r2}		; (ldr r2, [sp], #4)
   104f0:	e49d3004 	pop	{r3}		; (ldr r3, [sp], #4)
   104f4:	e49d4004 	pop	{r4}		; (ldr r4, [sp], #4)
   104f8:	e49d5004 	pop	{r5}		; (ldr r5, [sp], #4)
   104fc:	e49d6004 	pop	{r6}		; (ldr r6, [sp], #4)
   10500:	e49d7004 	pop	{r7}		; (ldr r7, [sp], #4)
   10504:	e49d8004 	pop	{r8}		; (ldr r8, [sp], #4)
   10508:	e49d9004 	pop	{r9}		; (ldr r9, [sp], #4)
   1050c:	e49da004 	pop	{sl}		; (ldr sl, [sp], #4)
   10510:	e49db004 	pop	{fp}		; (ldr fp, [sp], #4)
   10514:	e49dc004 	pop	{ip}		; (ldr ip, [sp], #4)
   10518:	e49de004 	pop	{lr}		; (ldr lr, [sp], #4)
   1051c:	e49df004 	pop	{pc}		; (ldr pc, [sp], #4)

00010520 <OSIntCtxSw>:
   10520:	eb0000ad 	bl	107dc <OSTaskSwHook>
   10524:	e59f41d4 	ldr	r4, [pc, #468]	; 10700 <OS_CPU_IRQ_ISR_1+0x58>
   10528:	e59f51d4 	ldr	r5, [pc, #468]	; 10704 <OS_CPU_IRQ_ISR_1+0x5c>
   1052c:	e5d56000 	ldrb	r6, [r5]
   10530:	e5c46000 	strb	r6, [r4]
   10534:	e59f41c0 	ldr	r4, [pc, #448]	; 106fc <OS_CPU_IRQ_ISR_1+0x54>
   10538:	e59f61c8 	ldr	r6, [pc, #456]	; 10708 <OS_CPU_IRQ_ISR_1+0x60>
   1053c:	e5966000 	ldr	r6, [r6]
   10540:	e5846000 	str	r6, [r4]
   10544:	e596d000 	ldr	sp, [r6]
   10548:	e49d4004 	pop	{r4}		; (ldr r4, [sp], #4)
   1054c:	e12ff004 	msr	CPSR_fsxc, r4
   10550:	e49d0004 	pop	{r0}		; (ldr r0, [sp], #4)
   10554:	e49d1004 	pop	{r1}		; (ldr r1, [sp], #4)
   10558:	e49d2004 	pop	{r2}		; (ldr r2, [sp], #4)
   1055c:	e49d3004 	pop	{r3}		; (ldr r3, [sp], #4)
   10560:	e49d4004 	pop	{r4}		; (ldr r4, [sp], #4)
   10564:	e49d5004 	pop	{r5}		; (ldr r5, [sp], #4)
   10568:	e49d6004 	pop	{r6}		; (ldr r6, [sp], #4)
   1056c:	e49d7004 	pop	{r7}		; (ldr r7, [sp], #4)
   10570:	e49d8004 	pop	{r8}		; (ldr r8, [sp], #4)
   10574:	e49d9004 	pop	{r9}		; (ldr r9, [sp], #4)
   10578:	e49da004 	pop	{sl}		; (ldr sl, [sp], #4)
   1057c:	e49db004 	pop	{fp}		; (ldr fp, [sp], #4)
   10580:	e49dc004 	pop	{ip}		; (ldr ip, [sp], #4)
   10584:	e49de004 	pop	{lr}		; (ldr lr, [sp], #4)
   10588:	e49df004 	pop	{pc}		; (ldr pc, [sp], #4)

0001058c <OSStartHighRdy>:
   1058c:	e32ff0df 	msr	CPSR_fsxc, #223	; 0xdf
   10590:	eb000091 	bl	107dc <OSTaskSwHook>
   10594:	e59f4170 	ldr	r4, [pc, #368]	; 1070c <OS_CPU_IRQ_ISR_1+0x64>
   10598:	e3a05001 	mov	r5, #1
   1059c:	e5c45000 	strb	r5, [r4]
   105a0:	e59f4160 	ldr	r4, [pc, #352]	; 10708 <OS_CPU_IRQ_ISR_1+0x60>
   105a4:	e5944000 	ldr	r4, [r4]
   105a8:	e594d000 	ldr	sp, [r4]
   105ac:	e49d4004 	pop	{r4}		; (ldr r4, [sp], #4)
   105b0:	e12ff004 	msr	CPSR_fsxc, r4
   105b4:	e49d0004 	pop	{r0}		; (ldr r0, [sp], #4)
   105b8:	e49d1004 	pop	{r1}		; (ldr r1, [sp], #4)
   105bc:	e49d2004 	pop	{r2}		; (ldr r2, [sp], #4)
   105c0:	e49d3004 	pop	{r3}		; (ldr r3, [sp], #4)
   105c4:	e49d4004 	pop	{r4}		; (ldr r4, [sp], #4)
   105c8:	e49d5004 	pop	{r5}		; (ldr r5, [sp], #4)
   105cc:	e49d6004 	pop	{r6}		; (ldr r6, [sp], #4)
   105d0:	e49d7004 	pop	{r7}		; (ldr r7, [sp], #4)
   105d4:	e49d8004 	pop	{r8}		; (ldr r8, [sp], #4)
   105d8:	e49d9004 	pop	{r9}		; (ldr r9, [sp], #4)
   105dc:	e49da004 	pop	{sl}		; (ldr sl, [sp], #4)
   105e0:	e49db004 	pop	{fp}		; (ldr fp, [sp], #4)
   105e4:	e49dc004 	pop	{ip}		; (ldr ip, [sp], #4)
   105e8:	e49de004 	pop	{lr}		; (ldr lr, [sp], #4)
   105ec:	e49df004 	pop	{pc}		; (ldr pc, [sp], #4)

000105f0 <OS_CPU_SR_Save>:
   105f0:	e10f0000 	mrs	r0, CPSR
   105f4:	e38010c0 	orr	r1, r0, #192	; 0xc0
   105f8:	e121f001 	msr	CPSR_c, r1
   105fc:	e10f1000 	mrs	r1, CPSR
   10600:	e20110c0 	and	r1, r1, #192	; 0xc0
   10604:	e35100c0 	cmp	r1, #192	; 0xc0
   10608:	1afffff8 	bne	105f0 <OS_CPU_SR_Save>
   1060c:	e1a0f00e 	mov	pc, lr

00010610 <OS_CPU_SR_Restore>:
   10610:	e121f000 	msr	CPSR_c, r0
   10614:	e1a0f00e 	mov	pc, lr

00010618 <OS_CPU_IRQ_ISR>:
   10618:	e52d3004 	push	{r3}		; (str r3, [sp, #-4]!)
   1061c:	e52d2004 	push	{r2}		; (str r2, [sp, #-4]!)
   10620:	e52d1004 	push	{r1}		; (str r1, [sp, #-4]!)
   10624:	e1a0100d 	mov	r1, sp
   10628:	e28dd00c 	add	sp, sp, #12
   1062c:	e24e2004 	sub	r2, lr, #4
   10630:	e14f3000 	mrs	r3, SPSR
   10634:	e321f0df 	msr	CPSR_c, #223	; 0xdf
   10638:	e52d2004 	push	{r2}		; (str r2, [sp, #-4]!)
   1063c:	e52de004 	push	{lr}		; (str lr, [sp, #-4]!)
   10640:	e52dc004 	push	{ip}		; (str ip, [sp, #-4]!)
   10644:	e52db004 	push	{fp}		; (str fp, [sp, #-4]!)
   10648:	e52da004 	push	{sl}		; (str sl, [sp, #-4]!)
   1064c:	e52d9004 	push	{r9}		; (str r9, [sp, #-4]!)
   10650:	e52d8004 	push	{r8}		; (str r8, [sp, #-4]!)
   10654:	e52d7004 	push	{r7}		; (str r7, [sp, #-4]!)
   10658:	e52d6004 	push	{r6}		; (str r6, [sp, #-4]!)
   1065c:	e52d5004 	push	{r5}		; (str r5, [sp, #-4]!)
   10660:	e52d4004 	push	{r4}		; (str r4, [sp, #-4]!)
   10664:	e4914004 	ldr	r4, [r1], #4
   10668:	e4915004 	ldr	r5, [r1], #4
   1066c:	e4916004 	ldr	r6, [r1], #4
   10670:	e52d6004 	push	{r6}		; (str r6, [sp, #-4]!)
   10674:	e52d5004 	push	{r5}		; (str r5, [sp, #-4]!)
   10678:	e52d4004 	push	{r4}		; (str r4, [sp, #-4]!)
   1067c:	e52d0004 	push	{r0}		; (str r0, [sp, #-4]!)
   10680:	e52d3004 	push	{r3}		; (str r3, [sp, #-4]!)
   10684:	e59f0084 	ldr	r0, [pc, #132]	; 10710 <OS_CPU_IRQ_ISR_1+0x68>
   10688:	e5d01000 	ldrb	r1, [r0]
   1068c:	e2811001 	add	r1, r1, #1
   10690:	e5c01000 	strb	r1, [r0]
   10694:	e3510001 	cmp	r1, #1
   10698:	1a000002 	bne	106a8 <OS_CPU_IRQ_ISR_1>
   1069c:	e59f4058 	ldr	r4, [pc, #88]	; 106fc <OS_CPU_IRQ_ISR_1+0x54>
   106a0:	e5945000 	ldr	r5, [r4]
   106a4:	e585d000 	str	sp, [r5]

000106a8 <OS_CPU_IRQ_ISR_1>:
   106a8:	e321f0d2 	msr	CPSR_c, #210	; 0xd2
   106ac:	ebffff09 	bl	102d8 <OS_CPU_IRQ_ISR_Handler>
   106b0:	e321f0df 	msr	CPSR_c, #223	; 0xdf
   106b4:	eb0000b5 	bl	10990 <OSIntExit>
   106b8:	e49d4004 	pop	{r4}		; (ldr r4, [sp], #4)
   106bc:	e12ff004 	msr	CPSR_fsxc, r4
   106c0:	e49d0004 	pop	{r0}		; (ldr r0, [sp], #4)
   106c4:	e49d1004 	pop	{r1}		; (ldr r1, [sp], #4)
   106c8:	e49d2004 	pop	{r2}		; (ldr r2, [sp], #4)
   106cc:	e49d3004 	pop	{r3}		; (ldr r3, [sp], #4)
   106d0:	e49d4004 	pop	{r4}		; (ldr r4, [sp], #4)
   106d4:	e49d5004 	pop	{r5}		; (ldr r5, [sp], #4)
   106d8:	e49d6004 	pop	{r6}		; (ldr r6, [sp], #4)
   106dc:	e49d7004 	pop	{r7}		; (ldr r7, [sp], #4)
   106e0:	e49d8004 	pop	{r8}		; (ldr r8, [sp], #4)
   106e4:	e49d9004 	pop	{r9}		; (ldr r9, [sp], #4)
   106e8:	e49da004 	pop	{sl}		; (ldr sl, [sp], #4)
   106ec:	e49db004 	pop	{fp}		; (ldr fp, [sp], #4)
   106f0:	e49dc004 	pop	{ip}		; (ldr ip, [sp], #4)
   106f4:	e49de004 	pop	{lr}		; (ldr lr, [sp], #4)
   106f8:	e49df004 	pop	{pc}		; (ldr pc, [sp], #4)
   106fc:	00016854 	andeq	r6, r1, r4, asr r8
   10700:	00015f40 	andeq	r5, r1, r0, asr #30
   10704:	00015f00 	andeq	r5, r1, r0, lsl #30
   10708:	00016838 	andeq	r6, r1, r8, lsr r8
   1070c:	00015ef9 	strdeq	r5, [r1], -r9
   10710:	00016851 	andeq	r6, r1, r1, asr r8

00010714 <OSTaskStkInit>:
   10714:	e92d0ff0 	push	{r4, r5, r6, r7, r8, r9, sl, fp}
   10718:	e59fb080 	ldr	fp, [pc, #128]	; 107a0 <OSTaskStkInit+0x8c>
   1071c:	e59f9080 	ldr	r9, [pc, #128]	; 107a4 <OSTaskStkInit+0x90>
   10720:	e59fa080 	ldr	sl, [pc, #128]	; 107a8 <OSTaskStkInit+0x94>
   10724:	e5820000 	str	r0, [r2]
   10728:	e5021038 	str	r1, [r2, #-56]	; 0xffffffc8
   1072c:	e502b004 	str	fp, [r2, #-4]
   10730:	e59f8074 	ldr	r8, [pc, #116]	; 107ac <OSTaskStkInit+0x98>
   10734:	e59f7074 	ldr	r7, [pc, #116]	; 107b0 <OSTaskStkInit+0x9c>
   10738:	e59f6074 	ldr	r6, [pc, #116]	; 107b4 <OSTaskStkInit+0xa0>
   1073c:	e59f5074 	ldr	r5, [pc, #116]	; 107b8 <OSTaskStkInit+0xa4>
   10740:	e59f4074 	ldr	r4, [pc, #116]	; 107bc <OSTaskStkInit+0xa8>
   10744:	e59fc074 	ldr	ip, [pc, #116]	; 107c0 <OSTaskStkInit+0xac>
   10748:	e59f3074 	ldr	r3, [pc, #116]	; 107c4 <OSTaskStkInit+0xb0>
   1074c:	e59f0074 	ldr	r0, [pc, #116]	; 107c8 <OSTaskStkInit+0xb4>
   10750:	e59f1074 	ldr	r1, [pc, #116]	; 107cc <OSTaskStkInit+0xb8>
   10754:	e59fb074 	ldr	fp, [pc, #116]	; 107d0 <OSTaskStkInit+0xbc>
   10758:	e5029008 	str	r9, [r2, #-8]
   1075c:	e502a00c 	str	sl, [r2, #-12]
   10760:	e1a09002 	mov	r9, r2
   10764:	e3a0a01f 	mov	sl, #31
   10768:	e502002c 	str	r0, [r2, #-44]	; 0xffffffd4
   1076c:	e5028010 	str	r8, [r2, #-16]
   10770:	e5027014 	str	r7, [r2, #-20]	; 0xffffffec
   10774:	e5026018 	str	r6, [r2, #-24]	; 0xffffffe8
   10778:	e502501c 	str	r5, [r2, #-28]	; 0xffffffe4
   1077c:	e5024020 	str	r4, [r2, #-32]	; 0xffffffe0
   10780:	e502c024 	str	ip, [r2, #-36]	; 0xffffffdc
   10784:	e5023028 	str	r3, [r2, #-40]	; 0xffffffd8
   10788:	e5021030 	str	r1, [r2, #-48]	; 0xffffffd0
   1078c:	e502b034 	str	fp, [r2, #-52]	; 0xffffffcc
   10790:	e529a03c 	str	sl, [r9, #-60]!	; 0xffffffc4
   10794:	e1a00009 	mov	r0, r9
   10798:	e8bd0ff0 	pop	{r4, r5, r6, r7, r8, r9, sl, fp}
   1079c:	e12fff1e 	bx	lr
   107a0:	14141414 	ldrne	r1, [r4], #-1044	; 0xfffffbec
   107a4:	12121212 	andsne	r1, r2, #536870913	; 0x20000001
   107a8:	11111111 	tstne	r1, r1, lsl r1
   107ac:	10101010 	andsne	r1, r0, r0, lsl r0
   107b0:	09090909 	stmdbeq	r9, {r0, r3, r8, fp}
   107b4:	08080808 	stmdaeq	r8, {r3, fp}
   107b8:	07070707 	streq	r0, [r7, -r7, lsl #14]
   107bc:	06060606 	streq	r0, [r6], -r6, lsl #12
   107c0:	05050505 	streq	r0, [r5, #-1285]	; 0xfffffafb
   107c4:	04040404 	streq	r0, [r4], #-1028	; 0xfffffbfc
   107c8:	03030303 	movweq	r0, #13059	; 0x3303
   107cc:	02020202 	andeq	r0, r2, #536870912	; 0x20000000
   107d0:	01010101 	tsteq	r1, r1, lsl #2

000107d4 <OSTaskCreateHook>:
   107d4:	e12fff1e 	bx	lr

000107d8 <OSTaskDelHook>:
   107d8:	e12fff1e 	bx	lr

000107dc <OSTaskSwHook>:
   107dc:	e12fff1e 	bx	lr

000107e0 <OSTaskStatHook>:
   107e0:	e12fff1e 	bx	lr

000107e4 <OSTimeTickHook>:
   107e4:	e12fff1e 	bx	lr

000107e8 <OSInitHookBegin>:
   107e8:	e12fff1e 	bx	lr

000107ec <OSInitHookEnd>:
   107ec:	e12fff1e 	bx	lr

000107f0 <OSTaskIdleHook>:
   107f0:	e12fff1e 	bx	lr

000107f4 <OSTCBInitHook>:
   107f4:	e12fff1e 	bx	lr

000107f8 <OS_FlagBlock>:
   107f8:	e92d0030 	push	{r4, r5}
   107fc:	e59fc07c 	ldr	ip, [pc, #124]	; 10880 <OS_FlagBlock+0x88>
   10800:	e1dd40b8 	ldrh	r4, [sp, #8]
   10804:	e59cc000 	ldr	ip, [ip]
   10808:	e5dc502c 	ldrb	r5, [ip, #44]	; 0x2c
   1080c:	e1cc42ba 	strh	r4, [ip, #42]	; 0x2a
   10810:	e3855020 	orr	r5, r5, #32
   10814:	e5cc502c 	strb	r5, [ip, #44]	; 0x2c
   10818:	e58c1024 	str	r1, [ip, #36]	; 0x24
   1081c:	e5c13012 	strb	r3, [r1, #18]
   10820:	e5903004 	ldr	r3, [r0, #4]
   10824:	e3a04000 	mov	r4, #0
   10828:	e1530004 	cmp	r3, r4
   1082c:	e5813000 	str	r3, [r1]
   10830:	e1c121b0 	strh	r2, [r1, #16]
   10834:	e5814004 	str	r4, [r1, #4]
   10838:	e581c008 	str	ip, [r1, #8]
   1083c:	e581000c 	str	r0, [r1, #12]
   10840:	15831004 	strne	r1, [r3, #4]
   10844:	e5801004 	str	r1, [r0, #4]
   10848:	e5dc302f 	ldrb	r3, [ip, #47]	; 0x2f
   1084c:	e59f2030 	ldr	r2, [pc, #48]	; 10884 <OS_FlagBlock+0x8c>
   10850:	e5dc0030 	ldrb	r0, [ip, #48]	; 0x30
   10854:	e7d21003 	ldrb	r1, [r2, r3]
   10858:	e1c11000 	bic	r1, r1, r0
   1085c:	e3510000 	cmp	r1, #0
   10860:	e7c21003 	strb	r1, [r2, r3]
   10864:	059f301c 	ldreq	r3, [pc, #28]	; 10888 <OS_FlagBlock+0x90>
   10868:	05dc1031 	ldrbeq	r1, [ip, #49]	; 0x31
   1086c:	05d32000 	ldrbeq	r2, [r3]
   10870:	01c22001 	biceq	r2, r2, r1
   10874:	05c32000 	strbeq	r2, [r3]
   10878:	e8bd0030 	pop	{r4, r5}
   1087c:	e12fff1e 	bx	lr
   10880:	00016854 	andeq	r6, r1, r4, asr r8
   10884:	00016844 	andeq	r6, r1, r4, asr #16
   10888:	00016840 	andeq	r6, r1, r0, asr #16

0001088c <OS_FlagTaskRdy>:
   1088c:	e92d0070 	push	{r4, r5, r6}
   10890:	e5903008 	ldr	r3, [r0, #8]
   10894:	e1a02000 	mov	r2, r0
   10898:	e5d3c02c 	ldrb	ip, [r3, #44]	; 0x2c
   1089c:	e3a00000 	mov	r0, #0
   108a0:	e1c312b8 	strh	r1, [r3, #40]	; 0x28
   108a4:	e20c10df 	and	r1, ip, #223	; 0xdf
   108a8:	e1510000 	cmp	r1, r0
   108ac:	e5c3102c 	strb	r1, [r3, #44]	; 0x2c
   108b0:	e1c302ba 	strh	r0, [r3, #42]	; 0x2a
   108b4:	1a00000b 	bne	108e8 <OS_FlagTaskRdy+0x5c>
   108b8:	e5d3102f 	ldrb	r1, [r3, #47]	; 0x2f
   108bc:	e59f006c 	ldr	r0, [pc, #108]	; 10930 <OS_FlagTaskRdy+0xa4>
   108c0:	e59fc06c 	ldr	ip, [pc, #108]	; 10934 <OS_FlagTaskRdy+0xa8>
   108c4:	e5d34031 	ldrb	r4, [r3, #49]	; 0x31
   108c8:	e7d05001 	ldrb	r5, [r0, r1]
   108cc:	e5dc6000 	ldrb	r6, [ip]
   108d0:	e5d33030 	ldrb	r3, [r3, #48]	; 0x30
   108d4:	e1864004 	orr	r4, r6, r4
   108d8:	e1853003 	orr	r3, r5, r3
   108dc:	e7c03001 	strb	r3, [r0, r1]
   108e0:	e5cc4000 	strb	r4, [ip]
   108e4:	e3a00001 	mov	r0, #1
   108e8:	e5921004 	ldr	r1, [r2, #4]
   108ec:	e5923000 	ldr	r3, [r2]
   108f0:	e3510000 	cmp	r1, #0
   108f4:	0a000008 	beq	1091c <OS_FlagTaskRdy+0x90>
   108f8:	e3530000 	cmp	r3, #0
   108fc:	e5813000 	str	r3, [r1]
   10900:	0a000000 	beq	10908 <OS_FlagTaskRdy+0x7c>
   10904:	e5831004 	str	r1, [r3, #4]
   10908:	e5923008 	ldr	r3, [r2, #8]
   1090c:	e3a02000 	mov	r2, #0
   10910:	e5832024 	str	r2, [r3, #36]	; 0x24
   10914:	e8bd0070 	pop	{r4, r5, r6}
   10918:	e12fff1e 	bx	lr
   1091c:	e592c00c 	ldr	ip, [r2, #12]
   10920:	e3530000 	cmp	r3, #0
   10924:	e58c3004 	str	r3, [ip, #4]
   10928:	1afffff5 	bne	10904 <OS_FlagTaskRdy+0x78>
   1092c:	eafffff5 	b	10908 <OS_FlagTaskRdy+0x7c>
   10930:	00016844 	andeq	r6, r1, r4, asr #16
   10934:	00016840 	andeq	r6, r1, r0, asr #16

00010938 <OS_TaskIdle>:
   10938:	e92d4010 	push	{r4, lr}
   1093c:	e59f4018 	ldr	r4, [pc, #24]	; 1095c <OS_TaskIdle+0x24>
   10940:	ebffff2a 	bl	105f0 <OS_CPU_SR_Save>
   10944:	e5943000 	ldr	r3, [r4]
   10948:	e2833001 	add	r3, r3, #1
   1094c:	e5843000 	str	r3, [r4]
   10950:	ebffff2e 	bl	10610 <OS_CPU_SR_Restore>
   10954:	ebffffa5 	bl	107f0 <OSTaskIdleHook>
   10958:	eafffff8 	b	10940 <OS_TaskIdle+0x8>
   1095c:	00015efc 	strdeq	r5, [r1], -ip

00010960 <OSIntEnter>:
   10960:	e59f3020 	ldr	r3, [pc, #32]	; 10988 <OSIntEnter+0x28>
   10964:	e5d33000 	ldrb	r3, [r3]
   10968:	e3530001 	cmp	r3, #1
   1096c:	112fff1e 	bxne	lr
   10970:	e59f3014 	ldr	r3, [pc, #20]	; 1098c <OSIntEnter+0x2c>
   10974:	e5d32000 	ldrb	r2, [r3]
   10978:	e35200ff 	cmp	r2, #255	; 0xff
   1097c:	12822001 	addne	r2, r2, #1
   10980:	15c32000 	strbne	r2, [r3]
   10984:	e12fff1e 	bx	lr
   10988:	00015ef9 	strdeq	r5, [r1], -r9
   1098c:	00016851 	andeq	r6, r1, r1, asr r8

00010990 <OSIntExit>:
   10990:	e92d4010 	push	{r4, lr}
   10994:	e59f30cc 	ldr	r3, [pc, #204]	; 10a68 <OSIntExit+0xd8>
   10998:	e24dd008 	sub	sp, sp, #8
   1099c:	e5d33000 	ldrb	r3, [r3]
   109a0:	e3530001 	cmp	r3, #1
   109a4:	0a000001 	beq	109b0 <OSIntExit+0x20>
   109a8:	e28dd008 	add	sp, sp, #8
   109ac:	e8bd8010 	pop	{r4, pc}
   109b0:	ebffff0e 	bl	105f0 <OS_CPU_SR_Save>
   109b4:	e59f30b0 	ldr	r3, [pc, #176]	; 10a6c <OSIntExit+0xdc>
   109b8:	e5d32000 	ldrb	r2, [r3]
   109bc:	e3520000 	cmp	r2, #0
   109c0:	1a000022 	bne	10a50 <OSIntExit+0xc0>
   109c4:	e59f30a4 	ldr	r3, [pc, #164]	; 10a70 <OSIntExit+0xe0>
   109c8:	e5d33000 	ldrb	r3, [r3]
   109cc:	e3530000 	cmp	r3, #0
   109d0:	1a00001b 	bne	10a44 <OSIntExit+0xb4>
   109d4:	e59f3098 	ldr	r3, [pc, #152]	; 10a74 <OSIntExit+0xe4>
   109d8:	e59f2098 	ldr	r2, [pc, #152]	; 10a78 <OSIntExit+0xe8>
   109dc:	e5d33000 	ldrb	r3, [r3]
   109e0:	e59f1094 	ldr	r1, [pc, #148]	; 10a7c <OSIntExit+0xec>
   109e4:	e7d23003 	ldrb	r3, [r2, r3]
   109e8:	e59fc090 	ldr	ip, [pc, #144]	; 10a80 <OSIntExit+0xf0>
   109ec:	e7d11003 	ldrb	r1, [r1, r3]
   109f0:	e5dc4000 	ldrb	r4, [ip]
   109f4:	e7d22001 	ldrb	r2, [r2, r1]
   109f8:	e59fc084 	ldr	ip, [pc, #132]	; 10a84 <OSIntExit+0xf4>
   109fc:	e0822183 	add	r2, r2, r3, lsl #3
   10a00:	e6ef2072 	uxtb	r2, r2
   10a04:	e59f107c 	ldr	r1, [pc, #124]	; 10a88 <OSIntExit+0xf8>
   10a08:	e1540002 	cmp	r4, r2
   10a0c:	e5cc2000 	strb	r2, [ip]
   10a10:	e5c13000 	strb	r3, [r1]
   10a14:	0a00000a 	beq	10a44 <OSIntExit+0xb4>
   10a18:	e59f306c 	ldr	r3, [pc, #108]	; 10a8c <OSIntExit+0xfc>
   10a1c:	e59f106c 	ldr	r1, [pc, #108]	; 10a90 <OSIntExit+0x100>
   10a20:	e593c000 	ldr	ip, [r3]
   10a24:	e7911102 	ldr	r1, [r1, r2, lsl #2]
   10a28:	e59f2064 	ldr	r2, [pc, #100]	; 10a94 <OSIntExit+0x104>
   10a2c:	e28cc001 	add	ip, ip, #1
   10a30:	e583c000 	str	ip, [r3]
   10a34:	e5821000 	str	r1, [r2]
   10a38:	e58d0004 	str	r0, [sp, #4]
   10a3c:	ebfffeb7 	bl	10520 <OSIntCtxSw>
   10a40:	e59d0004 	ldr	r0, [sp, #4]
   10a44:	e28dd008 	add	sp, sp, #8
   10a48:	e8bd4010 	pop	{r4, lr}
   10a4c:	eafffeef 	b	10610 <OS_CPU_SR_Restore>
   10a50:	e2422001 	sub	r2, r2, #1
   10a54:	e6ef2072 	uxtb	r2, r2
   10a58:	e3520000 	cmp	r2, #0
   10a5c:	e5c32000 	strb	r2, [r3]
   10a60:	1afffff7 	bne	10a44 <OSIntExit+0xb4>
   10a64:	eaffffd6 	b	109c4 <OSIntExit+0x34>
   10a68:	00015ef9 	strdeq	r5, [r1], -r9
   10a6c:	00016851 	andeq	r6, r1, r1, asr r8
   10a70:	00015ef8 	strdeq	r5, [r1], -r8
   10a74:	00016840 	andeq	r6, r1, r0, asr #16
   10a78:	00015ac4 	andeq	r5, r1, r4, asr #21
   10a7c:	00016844 	andeq	r6, r1, r4, asr #16
   10a80:	00015f40 	andeq	r5, r1, r0, asr #30
   10a84:	00015f00 	andeq	r5, r1, r0, lsl #30
   10a88:	00016850 	andeq	r6, r1, r0, asr r8
   10a8c:	000167ac 	andeq	r6, r1, ip, lsr #15
   10a90:	000174c8 	andeq	r7, r1, r8, asr #9
   10a94:	00016838 	andeq	r6, r1, r8, lsr r8

00010a98 <OSSchedLock>:
   10a98:	e92d4008 	push	{r3, lr}
   10a9c:	e59f3028 	ldr	r3, [pc, #40]	; 10acc <OSSchedLock+0x34>
   10aa0:	e5d33000 	ldrb	r3, [r3]
   10aa4:	e3530001 	cmp	r3, #1
   10aa8:	18bd8008 	popne	{r3, pc}
   10aac:	ebfffecf 	bl	105f0 <OS_CPU_SR_Save>
   10ab0:	e59f3018 	ldr	r3, [pc, #24]	; 10ad0 <OSSchedLock+0x38>
   10ab4:	e5d32000 	ldrb	r2, [r3]
   10ab8:	e35200ff 	cmp	r2, #255	; 0xff
   10abc:	12822001 	addne	r2, r2, #1
   10ac0:	15c32000 	strbne	r2, [r3]
   10ac4:	e8bd4008 	pop	{r3, lr}
   10ac8:	eafffed0 	b	10610 <OS_CPU_SR_Restore>
   10acc:	00015ef9 	strdeq	r5, [r1], -r9
   10ad0:	00015ef8 	strdeq	r5, [r1], -r8

00010ad4 <OSStart>:
   10ad4:	e52d4004 	push	{r4}		; (str r4, [sp, #-4]!)
   10ad8:	e59f3064 	ldr	r3, [pc, #100]	; 10b44 <OSStart+0x70>
   10adc:	e5d33000 	ldrb	r3, [r3]
   10ae0:	e3530000 	cmp	r3, #0
   10ae4:	0a000001 	beq	10af0 <OSStart+0x1c>
   10ae8:	e8bd0010 	ldmfd	sp!, {r4}
   10aec:	e12fff1e 	bx	lr
   10af0:	e59f3050 	ldr	r3, [pc, #80]	; 10b48 <OSStart+0x74>
   10af4:	e59f2050 	ldr	r2, [pc, #80]	; 10b4c <OSStart+0x78>
   10af8:	e5d33000 	ldrb	r3, [r3]
   10afc:	e59f004c 	ldr	r0, [pc, #76]	; 10b50 <OSStart+0x7c>
   10b00:	e7d23003 	ldrb	r3, [r2, r3]
   10b04:	e59f1048 	ldr	r1, [pc, #72]	; 10b54 <OSStart+0x80>
   10b08:	e7d00003 	ldrb	r0, [r0, r3]
   10b0c:	e59f4044 	ldr	r4, [pc, #68]	; 10b58 <OSStart+0x84>
   10b10:	e7d22000 	ldrb	r2, [r2, r0]
   10b14:	e59fc040 	ldr	ip, [pc, #64]	; 10b5c <OSStart+0x88>
   10b18:	e0823183 	add	r3, r2, r3, lsl #3
   10b1c:	e6ef3073 	uxtb	r3, r3
   10b20:	e7912103 	ldr	r2, [r1, r3, lsl #2]
   10b24:	e59f0034 	ldr	r0, [pc, #52]	; 10b60 <OSStart+0x8c>
   10b28:	e59f1034 	ldr	r1, [pc, #52]	; 10b64 <OSStart+0x90>
   10b2c:	e5c43000 	strb	r3, [r4]
   10b30:	e5cc3000 	strb	r3, [ip]
   10b34:	e5802000 	str	r2, [r0]
   10b38:	e5812000 	str	r2, [r1]
   10b3c:	e8bd0010 	ldmfd	sp!, {r4}
   10b40:	eafffe91 	b	1058c <OSStartHighRdy>
   10b44:	00015ef9 	strdeq	r5, [r1], -r9
   10b48:	00016840 	andeq	r6, r1, r0, asr #16
   10b4c:	00015ac4 	andeq	r5, r1, r4, asr #21
   10b50:	00016844 	andeq	r6, r1, r4, asr #16
   10b54:	000174c8 	andeq	r7, r1, r8, asr #9
   10b58:	00015f00 	andeq	r5, r1, r0, lsl #30
   10b5c:	00015f40 	andeq	r5, r1, r0, asr #30
   10b60:	00016838 	andeq	r6, r1, r8, lsr r8
   10b64:	00016854 	andeq	r6, r1, r4, asr r8

00010b68 <OSTimeTick>:
   10b68:	e92d40f8 	push	{r3, r4, r5, r6, r7, lr}
   10b6c:	ebffff1c 	bl	107e4 <OSTimeTickHook>
   10b70:	ebfffe9e 	bl	105f0 <OS_CPU_SR_Save>
   10b74:	e59f30a4 	ldr	r3, [pc, #164]	; 10c20 <OSTimeTick+0xb8>
   10b78:	e5932000 	ldr	r2, [r3]
   10b7c:	e2822001 	add	r2, r2, #1
   10b80:	e5832000 	str	r2, [r3]
   10b84:	ebfffea1 	bl	10610 <OS_CPU_SR_Restore>
   10b88:	e59f3094 	ldr	r3, [pc, #148]	; 10c24 <OSTimeTick+0xbc>
   10b8c:	e5d37000 	ldrb	r7, [r3]
   10b90:	e3570001 	cmp	r7, #1
   10b94:	18bd80f8 	popne	{r3, r4, r5, r6, r7, pc}
   10b98:	e59f3088 	ldr	r3, [pc, #136]	; 10c28 <OSTimeTick+0xc0>
   10b9c:	e5934000 	ldr	r4, [r3]
   10ba0:	e5d4302d 	ldrb	r3, [r4, #45]	; 0x2d
   10ba4:	e353003f 	cmp	r3, #63	; 0x3f
   10ba8:	08bd80f8 	popeq	{r3, r4, r5, r6, r7, pc}
   10bac:	e59f6078 	ldr	r6, [pc, #120]	; 10c2c <OSTimeTick+0xc4>
   10bb0:	e59f5078 	ldr	r5, [pc, #120]	; 10c30 <OSTimeTick+0xc8>
   10bb4:	ebfffe8d 	bl	105f0 <OS_CPU_SR_Save>
   10bb8:	e1d432ba 	ldrh	r3, [r4, #42]	; 0x2a
   10bbc:	e2432001 	sub	r2, r3, #1
   10bc0:	e3530000 	cmp	r3, #0
   10bc4:	e6ff2072 	uxth	r2, r2
   10bc8:	0a00000e 	beq	10c08 <OSTimeTick+0xa0>
   10bcc:	e3520000 	cmp	r2, #0
   10bd0:	e1c422ba 	strh	r2, [r4, #42]	; 0x2a
   10bd4:	1a00000b 	bne	10c08 <OSTimeTick+0xa0>
   10bd8:	e5d4302c 	ldrb	r3, [r4, #44]	; 0x2c
   10bdc:	e3130008 	tst	r3, #8
   10be0:	05d4302f 	ldrbeq	r3, [r4, #47]	; 0x2f
   10be4:	05d42031 	ldrbeq	r2, [r4, #49]	; 0x31
   10be8:	05d41030 	ldrbeq	r1, [r4, #48]	; 0x30
   10bec:	07d5e003 	ldrbeq	lr, [r5, r3]
   10bf0:	05d6c000 	ldrbeq	ip, [r6]
   10bf4:	018e1001 	orreq	r1, lr, r1
   10bf8:	018c2002 	orreq	r2, ip, r2
   10bfc:	07c51003 	strbeq	r1, [r5, r3]
   10c00:	05c62000 	strbeq	r2, [r6]
   10c04:	11c472ba 	strhne	r7, [r4, #42]	; 0x2a
   10c08:	e5944014 	ldr	r4, [r4, #20]
   10c0c:	ebfffe7f 	bl	10610 <OS_CPU_SR_Restore>
   10c10:	e5d4302d 	ldrb	r3, [r4, #45]	; 0x2d
   10c14:	e353003f 	cmp	r3, #63	; 0x3f
   10c18:	1affffe5 	bne	10bb4 <OSTimeTick+0x4c>
   10c1c:	e8bd80f8 	pop	{r3, r4, r5, r6, r7, pc}
   10c20:	00016858 	andeq	r6, r1, r8, asr r8
   10c24:	00015ef9 	strdeq	r5, [r1], -r9
   10c28:	00015f44 	andeq	r5, r1, r4, asr #30
   10c2c:	00016840 	andeq	r6, r1, r0, asr #16
   10c30:	00016844 	andeq	r6, r1, r4, asr #16

00010c34 <OSVersion>:
   10c34:	e3a000fc 	mov	r0, #252	; 0xfc
   10c38:	e12fff1e 	bx	lr

00010c3c <OS_Dummy>:
   10c3c:	e12fff1e 	bx	lr

00010c40 <OS_EventTaskRdy>:
   10c40:	e92d05f0 	push	{r4, r5, r6, r7, r8, sl}
   10c44:	e59f3094 	ldr	r3, [pc, #148]	; 10ce0 <OS_EventTaskRdy+0xa0>
   10c48:	e5d07001 	ldrb	r7, [r0, #1]
   10c4c:	e1a04000 	mov	r4, r0
   10c50:	e7d3c007 	ldrb	ip, [r3, r7]
   10c54:	e080500c 	add	r5, r0, ip
   10c58:	e5d5a008 	ldrb	sl, [r5, #8]
   10c5c:	e083600c 	add	r6, r3, ip
   10c60:	e7d3000a 	ldrb	r0, [r3, sl]
   10c64:	e5d68100 	ldrb	r8, [r6, #256]	; 0x100
   10c68:	e0833000 	add	r3, r3, r0
   10c6c:	e5d36100 	ldrb	r6, [r3, #256]	; 0x100
   10c70:	e080018c 	add	r0, r0, ip, lsl #3
   10c74:	e1ca3006 	bic	r3, sl, r6
   10c78:	e3530000 	cmp	r3, #0
   10c7c:	e5c53008 	strb	r3, [r5, #8]
   10c80:	01c77008 	biceq	r7, r7, r8
   10c84:	e59f3058 	ldr	r3, [pc, #88]	; 10ce4 <OS_EventTaskRdy+0xa4>
   10c88:	05c47001 	strbeq	r7, [r4, #1]
   10c8c:	e6ef0070 	uxtb	r0, r0
   10c90:	e7933100 	ldr	r3, [r3, r0, lsl #2]
   10c94:	e3a04000 	mov	r4, #0
   10c98:	e5d3502c 	ldrb	r5, [r3, #44]	; 0x2c
   10c9c:	e5831020 	str	r1, [r3, #32]
   10ca0:	e1c52002 	bic	r2, r5, r2
   10ca4:	e1520004 	cmp	r2, r4
   10ca8:	e5c3202c 	strb	r2, [r3, #44]	; 0x2c
   10cac:	e1c342ba 	strh	r4, [r3, #42]	; 0x2a
   10cb0:	e583401c 	str	r4, [r3, #28]
   10cb4:	1a000007 	bne	10cd8 <OS_EventTaskRdy+0x98>
   10cb8:	e59f2028 	ldr	r2, [pc, #40]	; 10ce8 <OS_EventTaskRdy+0xa8>
   10cbc:	e59f3028 	ldr	r3, [pc, #40]	; 10cec <OS_EventTaskRdy+0xac>
   10cc0:	e5d24000 	ldrb	r4, [r2]
   10cc4:	e7d3100c 	ldrb	r1, [r3, ip]
   10cc8:	e1888004 	orr	r8, r8, r4
   10ccc:	e1866001 	orr	r6, r6, r1
   10cd0:	e5c28000 	strb	r8, [r2]
   10cd4:	e7c3600c 	strb	r6, [r3, ip]
   10cd8:	e8bd05f0 	pop	{r4, r5, r6, r7, r8, sl}
   10cdc:	e12fff1e 	bx	lr
   10ce0:	00015ac4 	andeq	r5, r1, r4, asr #21
   10ce4:	000174c8 	andeq	r7, r1, r8, asr #9
   10ce8:	00016840 	andeq	r6, r1, r0, asr #16
   10cec:	00016844 	andeq	r6, r1, r4, asr #16

00010cf0 <OS_EventTaskWait>:
   10cf0:	e92d0030 	push	{r4, r5}
   10cf4:	e59f305c 	ldr	r3, [pc, #92]	; 10d58 <OS_EventTaskWait+0x68>
   10cf8:	e59fc05c 	ldr	ip, [pc, #92]	; 10d5c <OS_EventTaskWait+0x6c>
   10cfc:	e5933000 	ldr	r3, [r3]
   10d00:	e5d3202f 	ldrb	r2, [r3, #47]	; 0x2f
   10d04:	e583001c 	str	r0, [r3, #28]
   10d08:	e7dc4002 	ldrb	r4, [ip, r2]
   10d0c:	e5d31030 	ldrb	r1, [r3, #48]	; 0x30
   10d10:	e1c44001 	bic	r4, r4, r1
   10d14:	e3540000 	cmp	r4, #0
   10d18:	e7cc4002 	strb	r4, [ip, r2]
   10d1c:	059fc03c 	ldreq	ip, [pc, #60]	; 10d60 <OS_EventTaskWait+0x70>
   10d20:	05d35031 	ldrbeq	r5, [r3, #49]	; 0x31
   10d24:	05dc4000 	ldrbeq	r4, [ip]
   10d28:	e0802002 	add	r2, r0, r2
   10d2c:	01c44005 	biceq	r4, r4, r5
   10d30:	05cc4000 	strbeq	r4, [ip]
   10d34:	e5d24008 	ldrb	r4, [r2, #8]
   10d38:	e5d0c001 	ldrb	ip, [r0, #1]
   10d3c:	e1811004 	orr	r1, r1, r4
   10d40:	e5c21008 	strb	r1, [r2, #8]
   10d44:	e5d33031 	ldrb	r3, [r3, #49]	; 0x31
   10d48:	e183300c 	orr	r3, r3, ip
   10d4c:	e5c03001 	strb	r3, [r0, #1]
   10d50:	e8bd0030 	pop	{r4, r5}
   10d54:	e12fff1e 	bx	lr
   10d58:	00016854 	andeq	r6, r1, r4, asr r8
   10d5c:	00016844 	andeq	r6, r1, r4, asr #16
   10d60:	00016840 	andeq	r6, r1, r0, asr #16

00010d64 <OS_EventTO>:
   10d64:	e59f303c 	ldr	r3, [pc, #60]	; 10da8 <OS_EventTO+0x44>
   10d68:	e5933000 	ldr	r3, [r3]
   10d6c:	e5d3202f 	ldrb	r2, [r3, #47]	; 0x2f
   10d70:	e5d3c030 	ldrb	ip, [r3, #48]	; 0x30
   10d74:	e0802002 	add	r2, r0, r2
   10d78:	e5d21008 	ldrb	r1, [r2, #8]
   10d7c:	e1c1100c 	bic	r1, r1, ip
   10d80:	e5c21008 	strb	r1, [r2, #8]
   10d84:	e3510000 	cmp	r1, #0
   10d88:	05d02001 	ldrbeq	r2, [r0, #1]
   10d8c:	05d31031 	ldrbeq	r1, [r3, #49]	; 0x31
   10d90:	01c22001 	biceq	r2, r2, r1
   10d94:	05c02001 	strbeq	r2, [r0, #1]
   10d98:	e3a02000 	mov	r2, #0
   10d9c:	e5c3202c 	strb	r2, [r3, #44]	; 0x2c
   10da0:	e583201c 	str	r2, [r3, #28]
   10da4:	e12fff1e 	bx	lr
   10da8:	00016854 	andeq	r6, r1, r4, asr r8

00010dac <OS_EventWaitListInit>:
   10dac:	e3a03000 	mov	r3, #0
   10db0:	e5c03001 	strb	r3, [r0, #1]
   10db4:	e5c03008 	strb	r3, [r0, #8]
   10db8:	e5c03009 	strb	r3, [r0, #9]
   10dbc:	e5c0300a 	strb	r3, [r0, #10]
   10dc0:	e5c0300b 	strb	r3, [r0, #11]
   10dc4:	e5c0300c 	strb	r3, [r0, #12]
   10dc8:	e5c0300d 	strb	r3, [r0, #13]
   10dcc:	e5c0300e 	strb	r3, [r0, #14]
   10dd0:	e5c0300f 	strb	r3, [r0, #15]
   10dd4:	e12fff1e 	bx	lr

00010dd8 <OS_Sched>:
   10dd8:	e52de004 	push	{lr}		; (str lr, [sp, #-4]!)
   10ddc:	e24dd00c 	sub	sp, sp, #12
   10de0:	ebfffe02 	bl	105f0 <OS_CPU_SR_Save>
   10de4:	e59f308c 	ldr	r3, [pc, #140]	; 10e78 <OS_Sched+0xa0>
   10de8:	e5d33000 	ldrb	r3, [r3]
   10dec:	e3530000 	cmp	r3, #0
   10df0:	1a00001d 	bne	10e6c <OS_Sched+0x94>
   10df4:	e59f3080 	ldr	r3, [pc, #128]	; 10e7c <OS_Sched+0xa4>
   10df8:	e5d33000 	ldrb	r3, [r3]
   10dfc:	e3530000 	cmp	r3, #0
   10e00:	1a000019 	bne	10e6c <OS_Sched+0x94>
   10e04:	e59f3074 	ldr	r3, [pc, #116]	; 10e80 <OS_Sched+0xa8>
   10e08:	e59f2074 	ldr	r2, [pc, #116]	; 10e84 <OS_Sched+0xac>
   10e0c:	e5d33000 	ldrb	r3, [r3]
   10e10:	e59fc070 	ldr	ip, [pc, #112]	; 10e88 <OS_Sched+0xb0>
   10e14:	e7d23003 	ldrb	r3, [r2, r3]
   10e18:	e59f106c 	ldr	r1, [pc, #108]	; 10e8c <OS_Sched+0xb4>
   10e1c:	e7dcc003 	ldrb	ip, [ip, r3]
   10e20:	e5d11000 	ldrb	r1, [r1]
   10e24:	e7d2c00c 	ldrb	ip, [r2, ip]
   10e28:	e59f2060 	ldr	r2, [pc, #96]	; 10e90 <OS_Sched+0xb8>
   10e2c:	e08c3183 	add	r3, ip, r3, lsl #3
   10e30:	e6ef3073 	uxtb	r3, r3
   10e34:	e1510003 	cmp	r1, r3
   10e38:	e5c23000 	strb	r3, [r2]
   10e3c:	0a00000a 	beq	10e6c <OS_Sched+0x94>
   10e40:	e59f204c 	ldr	r2, [pc, #76]	; 10e94 <OS_Sched+0xbc>
   10e44:	e59f104c 	ldr	r1, [pc, #76]	; 10e98 <OS_Sched+0xc0>
   10e48:	e592c000 	ldr	ip, [r2]
   10e4c:	e7911103 	ldr	r1, [r1, r3, lsl #2]
   10e50:	e59f3044 	ldr	r3, [pc, #68]	; 10e9c <OS_Sched+0xc4>
   10e54:	e28cc001 	add	ip, ip, #1
   10e58:	e582c000 	str	ip, [r2]
   10e5c:	e5831000 	str	r1, [r3]
   10e60:	e58d0004 	str	r0, [sp, #4]
   10e64:	ebfffd7e 	bl	10464 <OSCtxSw>
   10e68:	e59d0004 	ldr	r0, [sp, #4]
   10e6c:	e28dd00c 	add	sp, sp, #12
   10e70:	e49de004 	pop	{lr}		; (ldr lr, [sp], #4)
   10e74:	eafffde5 	b	10610 <OS_CPU_SR_Restore>
   10e78:	00016851 	andeq	r6, r1, r1, asr r8
   10e7c:	00015ef8 	strdeq	r5, [r1], -r8
   10e80:	00016840 	andeq	r6, r1, r0, asr #16
   10e84:	00015ac4 	andeq	r5, r1, r4, asr #21
   10e88:	00016844 	andeq	r6, r1, r4, asr #16
   10e8c:	00015f40 	andeq	r5, r1, r0, asr #30
   10e90:	00015f00 	andeq	r5, r1, r0, lsl #30
   10e94:	000167ac 	andeq	r6, r1, ip, lsr #15
   10e98:	000174c8 	andeq	r7, r1, r8, asr #9
   10e9c:	00016838 	andeq	r6, r1, r8, lsr r8

00010ea0 <OSSchedUnlock>:
   10ea0:	e92d4008 	push	{r3, lr}
   10ea4:	e59f3064 	ldr	r3, [pc, #100]	; 10f10 <OSSchedUnlock+0x70>
   10ea8:	e5d33000 	ldrb	r3, [r3]
   10eac:	e3530001 	cmp	r3, #1
   10eb0:	18bd8008 	popne	{r3, pc}
   10eb4:	ebfffdcd 	bl	105f0 <OS_CPU_SR_Save>
   10eb8:	e59f3054 	ldr	r3, [pc, #84]	; 10f14 <OSSchedUnlock+0x74>
   10ebc:	e1a01000 	mov	r1, r0
   10ec0:	e5d32000 	ldrb	r2, [r3]
   10ec4:	e3520000 	cmp	r2, #0
   10ec8:	0a00000b 	beq	10efc <OSSchedUnlock+0x5c>
   10ecc:	e2422001 	sub	r2, r2, #1
   10ed0:	e6ef2072 	uxtb	r2, r2
   10ed4:	e3520000 	cmp	r2, #0
   10ed8:	e5c32000 	strb	r2, [r3]
   10edc:	1a000003 	bne	10ef0 <OSSchedUnlock+0x50>
   10ee0:	e59f3030 	ldr	r3, [pc, #48]	; 10f18 <OSSchedUnlock+0x78>
   10ee4:	e5d33000 	ldrb	r3, [r3]
   10ee8:	e3530000 	cmp	r3, #0
   10eec:	0a000004 	beq	10f04 <OSSchedUnlock+0x64>
   10ef0:	e1a00001 	mov	r0, r1
   10ef4:	e8bd4008 	pop	{r3, lr}
   10ef8:	eafffdc4 	b	10610 <OS_CPU_SR_Restore>
   10efc:	e8bd4008 	pop	{r3, lr}
   10f00:	eafffdc2 	b	10610 <OS_CPU_SR_Restore>
   10f04:	ebfffdc1 	bl	10610 <OS_CPU_SR_Restore>
   10f08:	e8bd4008 	pop	{r3, lr}
   10f0c:	eaffffb1 	b	10dd8 <OS_Sched>
   10f10:	00015ef9 	strdeq	r5, [r1], -r9
   10f14:	00015ef8 	strdeq	r5, [r1], -r8
   10f18:	00016851 	andeq	r6, r1, r1, asr r8

00010f1c <OSTimeDly.part.1>:
   10f1c:	e92d4010 	push	{r4, lr}
   10f20:	e1a04000 	mov	r4, r0
   10f24:	ebfffdb1 	bl	105f0 <OS_CPU_SR_Save>
   10f28:	e59f3040 	ldr	r3, [pc, #64]	; 10f70 <OSTimeDly.part.1+0x54>
   10f2c:	e59f1040 	ldr	r1, [pc, #64]	; 10f74 <OSTimeDly.part.1+0x58>
   10f30:	e5933000 	ldr	r3, [r3]
   10f34:	e5d3202f 	ldrb	r2, [r3, #47]	; 0x2f
   10f38:	e5d3e030 	ldrb	lr, [r3, #48]	; 0x30
   10f3c:	e7d1c002 	ldrb	ip, [r1, r2]
   10f40:	e1ccc00e 	bic	ip, ip, lr
   10f44:	e35c0000 	cmp	ip, #0
   10f48:	e7c1c002 	strb	ip, [r1, r2]
   10f4c:	059f2024 	ldreq	r2, [pc, #36]	; 10f78 <OSTimeDly.part.1+0x5c>
   10f50:	05d3c031 	ldrbeq	ip, [r3, #49]	; 0x31
   10f54:	05d21000 	ldrbeq	r1, [r2]
   10f58:	e1c342ba 	strh	r4, [r3, #42]	; 0x2a
   10f5c:	01c1100c 	biceq	r1, r1, ip
   10f60:	05c21000 	strbeq	r1, [r2]
   10f64:	ebfffda9 	bl	10610 <OS_CPU_SR_Restore>
   10f68:	e8bd4010 	pop	{r4, lr}
   10f6c:	eaffff99 	b	10dd8 <OS_Sched>
   10f70:	00016854 	andeq	r6, r1, r4, asr r8
   10f74:	00016844 	andeq	r6, r1, r4, asr #16
   10f78:	00016840 	andeq	r6, r1, r0, asr #16

00010f7c <OS_TaskStat>:
   10f7c:	e92d4ff8 	push	{r3, r4, r5, r6, r7, r8, r9, sl, fp, lr}
   10f80:	e59f40a4 	ldr	r4, [pc, #164]	; 1102c <OS_TaskStat+0xb0>
   10f84:	e5d43000 	ldrb	r3, [r4]
   10f88:	e3530000 	cmp	r3, #0
   10f8c:	1a000004 	bne	10fa4 <OS_TaskStat+0x28>
   10f90:	e3a00e7d 	mov	r0, #2000	; 0x7d0
   10f94:	ebffffe0 	bl	10f1c <OSTimeDly.part.1>
   10f98:	e5d43000 	ldrb	r3, [r4]
   10f9c:	e3530000 	cmp	r3, #0
   10fa0:	0afffffa 	beq	10f90 <OS_TaskStat+0x14>
   10fa4:	e59f9084 	ldr	r9, [pc, #132]	; 11030 <OS_TaskStat+0xb4>
   10fa8:	e59f3084 	ldr	r3, [pc, #132]	; 11034 <OS_TaskStat+0xb8>
   10fac:	e5992000 	ldr	r2, [r9]
   10fb0:	e1a0b003 	mov	fp, r3
   10fb4:	e0831293 	umull	r1, r3, r3, r2
   10fb8:	e59f5078 	ldr	r5, [pc, #120]	; 11038 <OS_TaskStat+0xbc>
   10fbc:	e1a042a3 	lsr	r4, r3, #5
   10fc0:	e59fa074 	ldr	sl, [pc, #116]	; 1103c <OS_TaskStat+0xc0>
   10fc4:	e59f8074 	ldr	r8, [pc, #116]	; 11040 <OS_TaskStat+0xc4>
   10fc8:	e3a07000 	mov	r7, #0
   10fcc:	ea000008 	b	10ff4 <OS_TaskStat+0x78>
   10fd0:	eb00101f 	bl	15054 <__aeabi_uidiv>
   10fd4:	e2600064 	rsb	r0, r0, #100	; 0x64
   10fd8:	e6ef0070 	uxtb	r0, r0
   10fdc:	e3100080 	tst	r0, #128	; 0x80
   10fe0:	05c80000 	strbeq	r0, [r8]
   10fe4:	15c87000 	strbne	r7, [r8]
   10fe8:	ebfffdfc 	bl	107e0 <OSTaskStatHook>
   10fec:	e3a00ffa 	mov	r0, #1000	; 0x3e8
   10ff0:	ebffffc9 	bl	10f1c <OSTimeDly.part.1>
   10ff4:	ebfffd7d 	bl	105f0 <OS_CPU_SR_Save>
   10ff8:	e5953000 	ldr	r3, [r5]
   10ffc:	e5956000 	ldr	r6, [r5]
   11000:	e58a3000 	str	r3, [sl]
   11004:	e5857000 	str	r7, [r5]
   11008:	ebfffd80 	bl	10610 <OS_CPU_SR_Restore>
   1100c:	e2541000 	subs	r1, r4, #0
   11010:	e1a00006 	mov	r0, r6
   11014:	1affffed 	bne	10fd0 <OS_TaskStat+0x54>
   11018:	e5993000 	ldr	r3, [r9]
   1101c:	e5c84000 	strb	r4, [r8]
   11020:	e084239b 	umull	r2, r4, fp, r3
   11024:	e1a042a4 	lsr	r4, r4, #5
   11028:	eaffffee 	b	10fe8 <OS_TaskStat+0x6c>
   1102c:	000174c4 	andeq	r7, r1, r4, asr #9
   11030:	000167b0 			; <UNDEFINED> instruction: 0x000167b0
   11034:	51eb851f 	mvnpl	r8, pc, lsl r5
   11038:	00015efc 	strdeq	r5, [r1], -ip
   1103c:	000175c8 	andeq	r7, r1, r8, asr #11
   11040:	000167b8 			; <UNDEFINED> instruction: 0x000167b8

00011044 <OSStatInit>:
   11044:	e92d4010 	push	{r4, lr}
   11048:	e3a00002 	mov	r0, #2
   1104c:	e59f403c 	ldr	r4, [pc, #60]	; 11090 <OSStatInit+0x4c>
   11050:	ebffffb1 	bl	10f1c <OSTimeDly.part.1>
   11054:	ebfffd65 	bl	105f0 <OS_CPU_SR_Save>
   11058:	e3a03000 	mov	r3, #0
   1105c:	e5843000 	str	r3, [r4]
   11060:	ebfffd6a 	bl	10610 <OS_CPU_SR_Restore>
   11064:	e3a00ffa 	mov	r0, #1000	; 0x3e8
   11068:	ebffffab 	bl	10f1c <OSTimeDly.part.1>
   1106c:	ebfffd5f 	bl	105f0 <OS_CPU_SR_Save>
   11070:	e594c000 	ldr	ip, [r4]
   11074:	e59f1018 	ldr	r1, [pc, #24]	; 11094 <OSStatInit+0x50>
   11078:	e59f3018 	ldr	r3, [pc, #24]	; 11098 <OSStatInit+0x54>
   1107c:	e3a02001 	mov	r2, #1
   11080:	e581c000 	str	ip, [r1]
   11084:	e5c32000 	strb	r2, [r3]
   11088:	e8bd4010 	pop	{r4, lr}
   1108c:	eafffd5f 	b	10610 <OS_CPU_SR_Restore>
   11090:	00015efc 	strdeq	r5, [r1], -ip
   11094:	000167b0 			; <UNDEFINED> instruction: 0x000167b0
   11098:	000174c4 	andeq	r7, r1, r4, asr #9

0001109c <OS_TCBInit>:
   1109c:	e92d47f0 	push	{r4, r5, r6, r7, r8, r9, sl, lr}
   110a0:	e1a06000 	mov	r6, r0
   110a4:	e1a09001 	mov	r9, r1
   110a8:	e1a0a002 	mov	sl, r2
   110ac:	e1a07003 	mov	r7, r3
   110b0:	e1dd82b8 	ldrh	r8, [sp, #40]	; 0x28
   110b4:	ebfffd4d 	bl	105f0 <OS_CPU_SR_Save>
   110b8:	e59fc0fc 	ldr	ip, [pc, #252]	; 111bc <OS_TCBInit+0x120>
   110bc:	e59c4000 	ldr	r4, [ip]
   110c0:	e3540000 	cmp	r4, #0
   110c4:	0a000039 	beq	111b0 <OS_TCBInit+0x114>
   110c8:	e5943014 	ldr	r3, [r4, #20]
   110cc:	e3a05000 	mov	r5, #0
   110d0:	e58c3000 	str	r3, [ip]
   110d4:	ebfffd4d 	bl	10610 <OS_CPU_SR_Restore>
   110d8:	e59f10e0 	ldr	r1, [pc, #224]	; 111c0 <OS_TCBInit+0x124>
   110dc:	e1a021a6 	lsr	r2, r6, #3
   110e0:	e2063007 	and	r3, r6, #7
   110e4:	e59dc024 	ldr	ip, [sp, #36]	; 0x24
   110e8:	e0810002 	add	r0, r1, r2
   110ec:	e0811003 	add	r1, r1, r3
   110f0:	e5d11100 	ldrb	r1, [r1, #256]	; 0x100
   110f4:	e5d00100 	ldrb	r0, [r0, #256]	; 0x100
   110f8:	e584c004 	str	ip, [r4, #4]
   110fc:	e59dc020 	ldr	ip, [sp, #32]
   11100:	e5c4202f 	strb	r2, [r4, #47]	; 0x2f
   11104:	e584c00c 	str	ip, [r4, #12]
   11108:	e5c41030 	strb	r1, [r4, #48]	; 0x30
   1110c:	e5c4302e 	strb	r3, [r4, #46]	; 0x2e
   11110:	e5c4602d 	strb	r6, [r4, #45]	; 0x2d
   11114:	e1c471b2 	strh	r7, [r4, #18]
   11118:	e5c40031 	strb	r0, [r4, #49]	; 0x31
   1111c:	e5c4502c 	strb	r5, [r4, #44]	; 0x2c
   11120:	e1c452ba 	strh	r5, [r4, #42]	; 0x2a
   11124:	e5c45032 	strb	r5, [r4, #50]	; 0x32
   11128:	e584501c 	str	r5, [r4, #28]
   1112c:	e5845024 	str	r5, [r4, #36]	; 0x24
   11130:	e5845020 	str	r5, [r4, #32]
   11134:	e1a00004 	mov	r0, r4
   11138:	e5849000 	str	r9, [r4]
   1113c:	e584a008 	str	sl, [r4, #8]
   11140:	e1c481b0 	strh	r8, [r4, #16]
   11144:	ebfffdaa 	bl	107f4 <OSTCBInitHook>
   11148:	e1a00004 	mov	r0, r4
   1114c:	ebfffda0 	bl	107d4 <OSTaskCreateHook>
   11150:	ebfffd26 	bl	105f0 <OS_CPU_SR_Save>
   11154:	e59fc068 	ldr	ip, [pc, #104]	; 111c4 <OS_TCBInit+0x128>
   11158:	e59f2068 	ldr	r2, [pc, #104]	; 111c8 <OS_TCBInit+0x12c>
   1115c:	e59c3000 	ldr	r3, [ip]
   11160:	e7824106 	str	r4, [r2, r6, lsl #2]
   11164:	e1530005 	cmp	r3, r5
   11168:	e5845018 	str	r5, [r4, #24]
   1116c:	e5843014 	str	r3, [r4, #20]
   11170:	15834018 	strne	r4, [r3, #24]
   11174:	e59f1050 	ldr	r1, [pc, #80]	; 111cc <OS_TCBInit+0x130>
   11178:	e5d4302f 	ldrb	r3, [r4, #47]	; 0x2f
   1117c:	e59f204c 	ldr	r2, [pc, #76]	; 111d0 <OS_TCBInit+0x134>
   11180:	e5d17000 	ldrb	r7, [r1]
   11184:	e5d45031 	ldrb	r5, [r4, #49]	; 0x31
   11188:	e5d4e030 	ldrb	lr, [r4, #48]	; 0x30
   1118c:	e7d26003 	ldrb	r6, [r2, r3]
   11190:	e1875005 	orr	r5, r7, r5
   11194:	e186e00e 	orr	lr, r6, lr
   11198:	e58c4000 	str	r4, [ip]
   1119c:	e5c15000 	strb	r5, [r1]
   111a0:	e7c2e003 	strb	lr, [r2, r3]
   111a4:	ebfffd19 	bl	10610 <OS_CPU_SR_Restore>
   111a8:	e3a00000 	mov	r0, #0
   111ac:	e8bd87f0 	pop	{r4, r5, r6, r7, r8, r9, sl, pc}
   111b0:	ebfffd16 	bl	10610 <OS_CPU_SR_Restore>
   111b4:	e3a00046 	mov	r0, #70	; 0x46
   111b8:	e8bd87f0 	pop	{r4, r5, r6, r7, r8, r9, sl, pc}
   111bc:	000167b4 			; <UNDEFINED> instruction: 0x000167b4
   111c0:	00015ac4 	andeq	r5, r1, r4, asr #21
   111c4:	00015f44 	andeq	r5, r1, r4, asr #30
   111c8:	000174c8 	andeq	r7, r1, r8, asr #9
   111cc:	00016840 	andeq	r6, r1, r0, asr #16
   111d0:	00016844 	andeq	r6, r1, r4, asr #16

000111d4 <OSFlagAccept>:
   111d4:	e92d41f0 	push	{r4, r5, r6, r7, r8, lr}
   111d8:	e2505000 	subs	r5, r0, #0
   111dc:	e1a06003 	mov	r6, r3
   111e0:	03e03069 	mvneq	r3, #105	; 0x69
   111e4:	e1a04002 	mov	r4, r2
   111e8:	e1a07001 	mov	r7, r1
   111ec:	01a04005 	moveq	r4, r5
   111f0:	05c63000 	strbeq	r3, [r6]
   111f4:	0a000005 	beq	11210 <OSFlagAccept+0x3c>
   111f8:	e5d53000 	ldrb	r3, [r5]
   111fc:	e3530005 	cmp	r3, #5
   11200:	0a000004 	beq	11218 <OSFlagAccept+0x44>
   11204:	e3a03001 	mov	r3, #1
   11208:	e5c63000 	strb	r3, [r6]
   1120c:	e3a04000 	mov	r4, #0
   11210:	e1a00004 	mov	r0, r4
   11214:	e8bd81f0 	pop	{r4, r5, r6, r7, r8, pc}
   11218:	e3140080 	tst	r4, #128	; 0x80
   1121c:	e3a03000 	mov	r3, #0
   11220:	1204407f 	andne	r4, r4, #127	; 0x7f
   11224:	e5c63000 	strb	r3, [r6]
   11228:	13a08001 	movne	r8, #1
   1122c:	03a08000 	moveq	r8, #0
   11230:	ebfffcee 	bl	105f0 <OS_CPU_SR_Save>
   11234:	e3540003 	cmp	r4, #3
   11238:	979ff104 	ldrls	pc, [pc, r4, lsl #2]
   1123c:	ea000020 	b	112c4 <OSFlagAccept+0xf0>
   11240:	000112b0 			; <UNDEFINED> instruction: 0x000112b0
   11244:	00011294 	muleq	r1, r4, r2
   11248:	00011274 	andeq	r1, r1, r4, ror r2
   1124c:	00011250 	andeq	r1, r1, r0, asr r2
   11250:	e1d540b8 	ldrh	r4, [r5, #8]
   11254:	e0177004 	ands	r7, r7, r4
   11258:	1a000009 	bne	11284 <OSFlagAccept+0xb0>
   1125c:	e3e03067 	mvn	r3, #103	; 0x67
   11260:	e5c63000 	strb	r3, [r6]
   11264:	e1d540b8 	ldrh	r4, [r5, #8]
   11268:	ebfffce8 	bl	10610 <OS_CPU_SR_Restore>
   1126c:	e1a00004 	mov	r0, r4
   11270:	e8bd81f0 	pop	{r4, r5, r6, r7, r8, pc}
   11274:	e1d540b8 	ldrh	r4, [r5, #8]
   11278:	e0073004 	and	r3, r7, r4
   1127c:	e1530007 	cmp	r3, r7
   11280:	1afffff5 	bne	1125c <OSFlagAccept+0x88>
   11284:	e3580001 	cmp	r8, #1
   11288:	01c44007 	biceq	r4, r4, r7
   1128c:	01c540b8 	strheq	r4, [r5, #8]
   11290:	eafffff4 	b	11268 <OSFlagAccept+0x94>
   11294:	e1d540b8 	ldrh	r4, [r5, #8]
   11298:	e1d77004 	bics	r7, r7, r4
   1129c:	0affffee 	beq	1125c <OSFlagAccept+0x88>
   112a0:	e3580001 	cmp	r8, #1
   112a4:	01874004 	orreq	r4, r7, r4
   112a8:	01c540b8 	strheq	r4, [r5, #8]
   112ac:	eaffffed 	b	11268 <OSFlagAccept+0x94>
   112b0:	e1d540b8 	ldrh	r4, [r5, #8]
   112b4:	e1c73004 	bic	r3, r7, r4
   112b8:	e1530007 	cmp	r3, r7
   112bc:	1affffe6 	bne	1125c <OSFlagAccept+0x88>
   112c0:	eafffff6 	b	112a0 <OSFlagAccept+0xcc>
   112c4:	ebfffcd1 	bl	10610 <OS_CPU_SR_Restore>
   112c8:	e3e03068 	mvn	r3, #104	; 0x68
   112cc:	e5c63000 	strb	r3, [r6]
   112d0:	e3a04000 	mov	r4, #0
   112d4:	eaffffcd 	b	11210 <OSFlagAccept+0x3c>

000112d8 <OSFlagCreate>:
   112d8:	e92d40f8 	push	{r3, r4, r5, r6, r7, lr}
   112dc:	e59f306c 	ldr	r3, [pc, #108]	; 11350 <OSFlagCreate+0x78>
   112e0:	e1a07000 	mov	r7, r0
   112e4:	e5d35000 	ldrb	r5, [r3]
   112e8:	e1a06001 	mov	r6, r1
   112ec:	e3550000 	cmp	r5, #0
   112f0:	13e03072 	mvnne	r3, #114	; 0x72
   112f4:	15c13000 	strbne	r3, [r1]
   112f8:	13a04000 	movne	r4, #0
   112fc:	1a00000c 	bne	11334 <OSFlagCreate+0x5c>
   11300:	ebfffcba 	bl	105f0 <OS_CPU_SR_Save>
   11304:	e59f3048 	ldr	r3, [pc, #72]	; 11354 <OSFlagCreate+0x7c>
   11308:	e5934000 	ldr	r4, [r3]
   1130c:	e3540000 	cmp	r4, #0
   11310:	0a000009 	beq	1133c <OSFlagCreate+0x64>
   11314:	e5941004 	ldr	r1, [r4, #4]
   11318:	e3a02005 	mov	r2, #5
   1131c:	e5831000 	str	r1, [r3]
   11320:	e1c470b8 	strh	r7, [r4, #8]
   11324:	e5845004 	str	r5, [r4, #4]
   11328:	e5c42000 	strb	r2, [r4]
   1132c:	ebfffcb7 	bl	10610 <OS_CPU_SR_Restore>
   11330:	e5c65000 	strb	r5, [r6]
   11334:	e1a00004 	mov	r0, r4
   11338:	e8bd80f8 	pop	{r3, r4, r5, r6, r7, pc}
   1133c:	ebfffcb3 	bl	10610 <OS_CPU_SR_Restore>
   11340:	e3e03065 	mvn	r3, #101	; 0x65
   11344:	e5c63000 	strb	r3, [r6]
   11348:	e1a00004 	mov	r0, r4
   1134c:	e8bd80f8 	pop	{r3, r4, r5, r6, r7, pc}
   11350:	00016851 	andeq	r6, r1, r1, asr r8
   11354:	000174c0 	andeq	r7, r1, r0, asr #9

00011358 <OSFlagDel>:
   11358:	e92d41f0 	push	{r4, r5, r6, r7, r8, lr}
   1135c:	e59f3120 	ldr	r3, [pc, #288]	; 11484 <OSFlagDel+0x12c>
   11360:	e24dd008 	sub	sp, sp, #8
   11364:	e5d33000 	ldrb	r3, [r3]
   11368:	e1a04000 	mov	r4, r0
   1136c:	e3530000 	cmp	r3, #0
   11370:	13e03073 	mvnne	r3, #115	; 0x73
   11374:	e1a05002 	mov	r5, r2
   11378:	15c23000 	strbne	r3, [r2]
   1137c:	1a000008 	bne	113a4 <OSFlagDel+0x4c>
   11380:	e3500000 	cmp	r0, #0
   11384:	03e03069 	mvneq	r3, #105	; 0x69
   11388:	05c23000 	strbeq	r3, [r2]
   1138c:	0a000004 	beq	113a4 <OSFlagDel+0x4c>
   11390:	e5d03000 	ldrb	r3, [r0]
   11394:	e3530005 	cmp	r3, #5
   11398:	0a000004 	beq	113b0 <OSFlagDel+0x58>
   1139c:	e3a03001 	mov	r3, #1
   113a0:	e5c23000 	strb	r3, [r2]
   113a4:	e1a00004 	mov	r0, r4
   113a8:	e28dd008 	add	sp, sp, #8
   113ac:	e8bd81f0 	pop	{r4, r5, r6, r7, r8, pc}
   113b0:	e58d1004 	str	r1, [sp, #4]
   113b4:	ebfffc8d 	bl	105f0 <OS_CPU_SR_Save>
   113b8:	e5946004 	ldr	r6, [r4, #4]
   113bc:	e59d1004 	ldr	r1, [sp, #4]
   113c0:	e2967000 	adds	r7, r6, #0
   113c4:	13a07001 	movne	r7, #1
   113c8:	e3510000 	cmp	r1, #0
   113cc:	e1a08000 	mov	r8, r0
   113d0:	1a000005 	bne	113ec <OSFlagDel+0x94>
   113d4:	e3570000 	cmp	r7, #0
   113d8:	0a00001e 	beq	11458 <OSFlagDel+0x100>
   113dc:	ebfffc8b 	bl	10610 <OS_CPU_SR_Restore>
   113e0:	e3a03008 	mov	r3, #8
   113e4:	e5c53000 	strb	r3, [r5]
   113e8:	eaffffed 	b	113a4 <OSFlagDel+0x4c>
   113ec:	e3510001 	cmp	r1, #1
   113f0:	0a000003 	beq	11404 <OSFlagDel+0xac>
   113f4:	ebfffc85 	bl	10610 <OS_CPU_SR_Restore>
   113f8:	e3a03007 	mov	r3, #7
   113fc:	e5c53000 	strb	r3, [r5]
   11400:	eaffffe7 	b	113a4 <OSFlagDel+0x4c>
   11404:	e3570000 	cmp	r7, #0
   11408:	0a000005 	beq	11424 <OSFlagDel+0xcc>
   1140c:	e1a00006 	mov	r0, r6
   11410:	e3a01000 	mov	r1, #0
   11414:	ebfffd1c 	bl	1088c <OS_FlagTaskRdy>
   11418:	e5966000 	ldr	r6, [r6]
   1141c:	e3560000 	cmp	r6, #0
   11420:	1afffff9 	bne	1140c <OSFlagDel+0xb4>
   11424:	e59f305c 	ldr	r3, [pc, #92]	; 11488 <OSFlagDel+0x130>
   11428:	e3a02000 	mov	r2, #0
   1142c:	e5c42000 	strb	r2, [r4]
   11430:	e5932000 	ldr	r2, [r3]
   11434:	e1a00008 	mov	r0, r8
   11438:	e5842004 	str	r2, [r4, #4]
   1143c:	e5834000 	str	r4, [r3]
   11440:	ebfffc72 	bl	10610 <OS_CPU_SR_Restore>
   11444:	e3570001 	cmp	r7, #1
   11448:	0a00000b 	beq	1147c <OSFlagDel+0x124>
   1144c:	e3a04000 	mov	r4, #0
   11450:	e5c54000 	strb	r4, [r5]
   11454:	eaffffd2 	b	113a4 <OSFlagDel+0x4c>
   11458:	e59f3028 	ldr	r3, [pc, #40]	; 11488 <OSFlagDel+0x130>
   1145c:	e5c47000 	strb	r7, [r4]
   11460:	e5932000 	ldr	r2, [r3]
   11464:	e5834000 	str	r4, [r3]
   11468:	e5842004 	str	r2, [r4, #4]
   1146c:	ebfffc67 	bl	10610 <OS_CPU_SR_Restore>
   11470:	e1a04007 	mov	r4, r7
   11474:	e5c57000 	strb	r7, [r5]
   11478:	eaffffc9 	b	113a4 <OSFlagDel+0x4c>
   1147c:	ebfffe55 	bl	10dd8 <OS_Sched>
   11480:	eafffff1 	b	1144c <OSFlagDel+0xf4>
   11484:	00016851 	andeq	r6, r1, r1, asr r8
   11488:	000174c0 	andeq	r7, r1, r0, asr #9

0001148c <OSFlagPend>:
   1148c:	e92d47f0 	push	{r4, r5, r6, r7, r8, r9, sl, lr}
   11490:	e59fc28c 	ldr	ip, [pc, #652]	; 11724 <OSFlagPend+0x298>
   11494:	e1a04000 	mov	r4, r0
   11498:	e5dc0000 	ldrb	r0, [ip]
   1149c:	e24dd020 	sub	sp, sp, #32
   114a0:	e3500000 	cmp	r0, #0
   114a4:	e1a07001 	mov	r7, r1
   114a8:	e1a06002 	mov	r6, r2
   114ac:	e1a08003 	mov	r8, r3
   114b0:	1a000018 	bne	11518 <OSFlagPend+0x8c>
   114b4:	e3540000 	cmp	r4, #0
   114b8:	0a00001b 	beq	1152c <OSFlagPend+0xa0>
   114bc:	e5d42000 	ldrb	r2, [r4]
   114c0:	e3520005 	cmp	r2, #5
   114c4:	0a000006 	beq	114e4 <OSFlagPend+0x58>
   114c8:	e59d2040 	ldr	r2, [sp, #64]	; 0x40
   114cc:	e3a03001 	mov	r3, #1
   114d0:	e1a05000 	mov	r5, r0
   114d4:	e5c23000 	strb	r3, [r2]
   114d8:	e1a00005 	mov	r0, r5
   114dc:	e28dd020 	add	sp, sp, #32
   114e0:	e8bd87f0 	pop	{r4, r5, r6, r7, r8, r9, sl, pc}
   114e4:	e3160080 	tst	r6, #128	; 0x80
   114e8:	1206607f 	andne	r6, r6, #127	; 0x7f
   114ec:	13a09001 	movne	r9, #1
   114f0:	01a09000 	moveq	r9, r0
   114f4:	ebfffc3d 	bl	105f0 <OS_CPU_SR_Save>
   114f8:	e1a0a000 	mov	sl, r0
   114fc:	e3560003 	cmp	r6, #3
   11500:	979ff106 	ldrls	pc, [pc, r6, lsl #2]
   11504:	ea000019 	b	11570 <OSFlagPend+0xe4>
   11508:	00011588 	andeq	r1, r1, r8, lsl #11
   1150c:	000115a8 	andeq	r1, r1, r8, lsr #11
   11510:	000115c4 	andeq	r1, r1, r4, asr #11
   11514:	00011540 	andeq	r1, r1, r0, asr #10
   11518:	e59d2040 	ldr	r2, [sp, #64]	; 0x40
   1151c:	e3a03002 	mov	r3, #2
   11520:	e5c23000 	strb	r3, [r2]
   11524:	e3a05000 	mov	r5, #0
   11528:	eaffffea 	b	114d8 <OSFlagPend+0x4c>
   1152c:	e59d2040 	ldr	r2, [sp, #64]	; 0x40
   11530:	e3e03069 	mvn	r3, #105	; 0x69
   11534:	e1a05004 	mov	r5, r4
   11538:	e5c23000 	strb	r3, [r2]
   1153c:	eaffffe5 	b	114d8 <OSFlagPend+0x4c>
   11540:	e1d450b8 	ldrh	r5, [r4, #8]
   11544:	e0173005 	ands	r3, r7, r5
   11548:	0a000056 	beq	116a8 <OSFlagPend+0x21c>
   1154c:	e3590001 	cmp	r9, #1
   11550:	01c55003 	biceq	r5, r5, r3
   11554:	01c450b8 	strheq	r5, [r4, #8]
   11558:	e1a0000a 	mov	r0, sl
   1155c:	ebfffc2b 	bl	10610 <OS_CPU_SR_Restore>
   11560:	e59d2040 	ldr	r2, [sp, #64]	; 0x40
   11564:	e3a03000 	mov	r3, #0
   11568:	e5c23000 	strb	r3, [r2]
   1156c:	eaffffd9 	b	114d8 <OSFlagPend+0x4c>
   11570:	ebfffc26 	bl	10610 <OS_CPU_SR_Restore>
   11574:	e59d2040 	ldr	r2, [sp, #64]	; 0x40
   11578:	e3e03068 	mvn	r3, #104	; 0x68
   1157c:	e5c23000 	strb	r3, [r2]
   11580:	e3a05000 	mov	r5, #0
   11584:	eaffffd3 	b	114d8 <OSFlagPend+0x4c>
   11588:	e1d450b8 	ldrh	r5, [r4, #8]
   1158c:	e1c73005 	bic	r3, r7, r5
   11590:	e1530007 	cmp	r3, r7
   11594:	1a000012 	bne	115e4 <OSFlagPend+0x158>
   11598:	e3590001 	cmp	r9, #1
   1159c:	01875005 	orreq	r5, r7, r5
   115a0:	01c450b8 	strheq	r5, [r4, #8]
   115a4:	eaffffeb 	b	11558 <OSFlagPend+0xcc>
   115a8:	e1d450b8 	ldrh	r5, [r4, #8]
   115ac:	e1d73005 	bics	r3, r7, r5
   115b0:	0a000045 	beq	116cc <OSFlagPend+0x240>
   115b4:	e3590001 	cmp	r9, #1
   115b8:	01835005 	orreq	r5, r3, r5
   115bc:	01c450b8 	strheq	r5, [r4, #8]
   115c0:	eaffffe4 	b	11558 <OSFlagPend+0xcc>
   115c4:	e1d450b8 	ldrh	r5, [r4, #8]
   115c8:	e0073005 	and	r3, r7, r5
   115cc:	e1530007 	cmp	r3, r7
   115d0:	1a00002b 	bne	11684 <OSFlagPend+0x1f8>
   115d4:	e3590001 	cmp	r9, #1
   115d8:	01c55007 	biceq	r5, r5, r7
   115dc:	01c450b8 	strheq	r5, [r4, #8]
   115e0:	eaffffdc 	b	11558 <OSFlagPend+0xcc>
   115e4:	e1a00004 	mov	r0, r4
   115e8:	e58d8000 	str	r8, [sp]
   115ec:	e1a02007 	mov	r2, r7
   115f0:	e28d100c 	add	r1, sp, #12
   115f4:	e3a03000 	mov	r3, #0
   115f8:	ebfffc7e 	bl	107f8 <OS_FlagBlock>
   115fc:	e1a0000a 	mov	r0, sl
   11600:	ebfffc02 	bl	10610 <OS_CPU_SR_Restore>
   11604:	ebfffdf3 	bl	10dd8 <OS_Sched>
   11608:	ebfffbf8 	bl	105f0 <OS_CPU_SR_Save>
   1160c:	e59f3114 	ldr	r3, [pc, #276]	; 11728 <OSFlagPend+0x29c>
   11610:	e5933000 	ldr	r3, [r3]
   11614:	e5d3202c 	ldrb	r2, [r3, #44]	; 0x2c
   11618:	e3120020 	tst	r2, #32
   1161c:	0a000010 	beq	11664 <OSFlagPend+0x1d8>
   11620:	e59d1010 	ldr	r1, [sp, #16]
   11624:	e59d200c 	ldr	r2, [sp, #12]
   11628:	e3510000 	cmp	r1, #0
   1162c:	0a000037 	beq	11710 <OSFlagPend+0x284>
   11630:	e3520000 	cmp	r2, #0
   11634:	e5812000 	str	r2, [r1]
   11638:	0a000000 	beq	11640 <OSFlagPend+0x1b4>
   1163c:	e5821004 	str	r1, [r2, #4]
   11640:	e59d2014 	ldr	r2, [sp, #20]
   11644:	e3a05000 	mov	r5, #0
   11648:	e5825024 	str	r5, [r2, #36]	; 0x24
   1164c:	e5c3502c 	strb	r5, [r3, #44]	; 0x2c
   11650:	ebfffbee 	bl	10610 <OS_CPU_SR_Restore>
   11654:	e59d2040 	ldr	r2, [sp, #64]	; 0x40
   11658:	e3a0300a 	mov	r3, #10
   1165c:	e5c23000 	strb	r3, [r2]
   11660:	eaffff9c 	b	114d8 <OSFlagPend+0x4c>
   11664:	e3590001 	cmp	r9, #1
   11668:	0a000020 	beq	116f0 <OSFlagPend+0x264>
   1166c:	e1d450b8 	ldrh	r5, [r4, #8]
   11670:	ebfffbe6 	bl	10610 <OS_CPU_SR_Restore>
   11674:	e59d2040 	ldr	r2, [sp, #64]	; 0x40
   11678:	e3a03000 	mov	r3, #0
   1167c:	e5c23000 	strb	r3, [r2]
   11680:	eaffff94 	b	114d8 <OSFlagPend+0x4c>
   11684:	e1a00004 	mov	r0, r4
   11688:	e58d8000 	str	r8, [sp]
   1168c:	e1a02007 	mov	r2, r7
   11690:	e28d100c 	add	r1, sp, #12
   11694:	e3a03002 	mov	r3, #2
   11698:	ebfffc56 	bl	107f8 <OS_FlagBlock>
   1169c:	e1a0000a 	mov	r0, sl
   116a0:	ebfffbda 	bl	10610 <OS_CPU_SR_Restore>
   116a4:	eaffffd6 	b	11604 <OSFlagPend+0x178>
   116a8:	e1a00004 	mov	r0, r4
   116ac:	e58d8000 	str	r8, [sp]
   116b0:	e1a02007 	mov	r2, r7
   116b4:	e28d100c 	add	r1, sp, #12
   116b8:	e3a03003 	mov	r3, #3
   116bc:	ebfffc4d 	bl	107f8 <OS_FlagBlock>
   116c0:	e1a0000a 	mov	r0, sl
   116c4:	ebfffbd1 	bl	10610 <OS_CPU_SR_Restore>
   116c8:	eaffffcd 	b	11604 <OSFlagPend+0x178>
   116cc:	e1a00004 	mov	r0, r4
   116d0:	e58d8000 	str	r8, [sp]
   116d4:	e1a02007 	mov	r2, r7
   116d8:	e28d100c 	add	r1, sp, #12
   116dc:	e3a03001 	mov	r3, #1
   116e0:	ebfffc44 	bl	107f8 <OS_FlagBlock>
   116e4:	e1a0000a 	mov	r0, sl
   116e8:	ebfffbc8 	bl	10610 <OS_CPU_SR_Restore>
   116ec:	eaffffc4 	b	11604 <OSFlagPend+0x178>
   116f0:	e1d352b8 	ldrh	r5, [r3, #40]	; 0x28
   116f4:	e2466002 	sub	r6, r6, #2
   116f8:	e1d430b8 	ldrh	r3, [r4, #8]
   116fc:	e3560001 	cmp	r6, #1
   11700:	91c35005 	bicls	r5, r3, r5
   11704:	81855003 	orrhi	r5, r5, r3
   11708:	e1c450b8 	strh	r5, [r4, #8]
   1170c:	eaffffd7 	b	11670 <OSFlagPend+0x1e4>
   11710:	e59dc018 	ldr	ip, [sp, #24]
   11714:	e3520000 	cmp	r2, #0
   11718:	e58c2004 	str	r2, [ip, #4]
   1171c:	1affffc6 	bne	1163c <OSFlagPend+0x1b0>
   11720:	eaffffc6 	b	11640 <OSFlagPend+0x1b4>
   11724:	00016851 	andeq	r6, r1, r1, asr r8
   11728:	00016854 	andeq	r6, r1, r4, asr r8

0001172c <OSFlagPost>:
   1172c:	e92d41f0 	push	{r4, r5, r6, r7, r8, lr}
   11730:	e2505000 	subs	r5, r0, #0
   11734:	e1a06003 	mov	r6, r3
   11738:	03e03069 	mvneq	r3, #105	; 0x69
   1173c:	e24dd008 	sub	sp, sp, #8
   11740:	05c63000 	strbeq	r3, [r6]
   11744:	0a000005 	beq	11760 <OSFlagPost+0x34>
   11748:	e5d53000 	ldrb	r3, [r5]
   1174c:	e3530005 	cmp	r3, #5
   11750:	0a000005 	beq	1176c <OSFlagPost+0x40>
   11754:	e3a03001 	mov	r3, #1
   11758:	e5c63000 	strb	r3, [r6]
   1175c:	e3a05000 	mov	r5, #0
   11760:	e1a00005 	mov	r0, r5
   11764:	e28dd008 	add	sp, sp, #8
   11768:	e8bd81f0 	pop	{r4, r5, r6, r7, r8, pc}
   1176c:	e58d1004 	str	r1, [sp, #4]
   11770:	e58d2000 	str	r2, [sp]
   11774:	ebfffb9d 	bl	105f0 <OS_CPU_SR_Save>
   11778:	e59d2000 	ldr	r2, [sp]
   1177c:	e1a07000 	mov	r7, r0
   11780:	e3520000 	cmp	r2, #0
   11784:	e59d1004 	ldr	r1, [sp, #4]
   11788:	1a00003d 	bne	11884 <OSFlagPost+0x158>
   1178c:	e1d530b8 	ldrh	r3, [r5, #8]
   11790:	e1c31001 	bic	r1, r3, r1
   11794:	e1c510b8 	strh	r1, [r5, #8]
   11798:	e5954004 	ldr	r4, [r5, #4]
   1179c:	e3540000 	cmp	r4, #0
   117a0:	0a000044 	beq	118b8 <OSFlagPost+0x18c>
   117a4:	e3a08000 	mov	r8, #0
   117a8:	e5d42012 	ldrb	r2, [r4, #18]
   117ac:	e3520003 	cmp	r2, #3
   117b0:	979ff102 	ldrls	pc, [pc, r2, lsl #2]
   117b4:	ea00000b 	b	117e8 <OSFlagPost+0xbc>
   117b8:	0001183c 	andeq	r1, r1, ip, lsr r8
   117bc:	0001181c 	andeq	r1, r1, ip, lsl r8
   117c0:	00011860 	andeq	r1, r1, r0, ror #16
   117c4:	000117c8 	andeq	r1, r1, r8, asr #15
   117c8:	e1d411b0 	ldrh	r1, [r4, #16]
   117cc:	e1d530b8 	ldrh	r3, [r5, #8]
   117d0:	e0111003 	ands	r1, r1, r3
   117d4:	0a000003 	beq	117e8 <OSFlagPost+0xbc>
   117d8:	e1a00004 	mov	r0, r4
   117dc:	ebfffc2a 	bl	1088c <OS_FlagTaskRdy>
   117e0:	e3500001 	cmp	r0, #1
   117e4:	03a08001 	moveq	r8, #1
   117e8:	e5944000 	ldr	r4, [r4]
   117ec:	e3540000 	cmp	r4, #0
   117f0:	1affffec 	bne	117a8 <OSFlagPost+0x7c>
   117f4:	e1a00007 	mov	r0, r7
   117f8:	ebfffb84 	bl	10610 <OS_CPU_SR_Restore>
   117fc:	e3580001 	cmp	r8, #1
   11800:	0a00002a 	beq	118b0 <OSFlagPost+0x184>
   11804:	ebfffb79 	bl	105f0 <OS_CPU_SR_Save>
   11808:	e1d550b8 	ldrh	r5, [r5, #8]
   1180c:	ebfffb7f 	bl	10610 <OS_CPU_SR_Restore>
   11810:	e3a03000 	mov	r3, #0
   11814:	e5c63000 	strb	r3, [r6]
   11818:	eaffffd0 	b	11760 <OSFlagPost+0x34>
   1181c:	e1d510b8 	ldrh	r1, [r5, #8]
   11820:	e1d431b0 	ldrh	r3, [r4, #16]
   11824:	e1d31001 	bics	r1, r3, r1
   11828:	1affffea 	bne	117d8 <OSFlagPost+0xac>
   1182c:	e5944000 	ldr	r4, [r4]
   11830:	e3540000 	cmp	r4, #0
   11834:	1affffdb 	bne	117a8 <OSFlagPost+0x7c>
   11838:	eaffffed 	b	117f4 <OSFlagPost+0xc8>
   1183c:	e1d411b0 	ldrh	r1, [r4, #16]
   11840:	e1d530b8 	ldrh	r3, [r5, #8]
   11844:	e1c13003 	bic	r3, r1, r3
   11848:	e1510003 	cmp	r1, r3
   1184c:	0affffe1 	beq	117d8 <OSFlagPost+0xac>
   11850:	e5944000 	ldr	r4, [r4]
   11854:	e3540000 	cmp	r4, #0
   11858:	1affffd2 	bne	117a8 <OSFlagPost+0x7c>
   1185c:	eaffffe4 	b	117f4 <OSFlagPost+0xc8>
   11860:	e1d411b0 	ldrh	r1, [r4, #16]
   11864:	e1d530b8 	ldrh	r3, [r5, #8]
   11868:	e0013003 	and	r3, r1, r3
   1186c:	e1510003 	cmp	r1, r3
   11870:	0affffd8 	beq	117d8 <OSFlagPost+0xac>
   11874:	e5944000 	ldr	r4, [r4]
   11878:	e3540000 	cmp	r4, #0
   1187c:	1affffc9 	bne	117a8 <OSFlagPost+0x7c>
   11880:	eaffffdb 	b	117f4 <OSFlagPost+0xc8>
   11884:	e3520001 	cmp	r2, #1
   11888:	0a000004 	beq	118a0 <OSFlagPost+0x174>
   1188c:	ebfffb5f 	bl	10610 <OS_CPU_SR_Restore>
   11890:	e3e03066 	mvn	r3, #102	; 0x66
   11894:	e5c63000 	strb	r3, [r6]
   11898:	e3a05000 	mov	r5, #0
   1189c:	eaffffaf 	b	11760 <OSFlagPost+0x34>
   118a0:	e1d530b8 	ldrh	r3, [r5, #8]
   118a4:	e1811003 	orr	r1, r1, r3
   118a8:	e1c510b8 	strh	r1, [r5, #8]
   118ac:	eaffffb9 	b	11798 <OSFlagPost+0x6c>
   118b0:	ebfffd48 	bl	10dd8 <OS_Sched>
   118b4:	eaffffd2 	b	11804 <OSFlagPost+0xd8>
   118b8:	e1a00007 	mov	r0, r7
   118bc:	ebfffb53 	bl	10610 <OS_CPU_SR_Restore>
   118c0:	eaffffcf 	b	11804 <OSFlagPost+0xd8>

000118c4 <OSFlagQuery>:
   118c4:	e92d4010 	push	{r4, lr}
   118c8:	e2504000 	subs	r4, r0, #0
   118cc:	03e03069 	mvneq	r3, #105	; 0x69
   118d0:	e24dd008 	sub	sp, sp, #8
   118d4:	05c13000 	strbeq	r3, [r1]
   118d8:	0a000005 	beq	118f4 <OSFlagQuery+0x30>
   118dc:	e5d43000 	ldrb	r3, [r4]
   118e0:	e3530005 	cmp	r3, #5
   118e4:	0a000005 	beq	11900 <OSFlagQuery+0x3c>
   118e8:	e3a03001 	mov	r3, #1
   118ec:	e5c13000 	strb	r3, [r1]
   118f0:	e3a04000 	mov	r4, #0
   118f4:	e1a00004 	mov	r0, r4
   118f8:	e28dd008 	add	sp, sp, #8
   118fc:	e8bd8010 	pop	{r4, pc}
   11900:	e58d1004 	str	r1, [sp, #4]
   11904:	ebfffb39 	bl	105f0 <OS_CPU_SR_Save>
   11908:	e1d440b8 	ldrh	r4, [r4, #8]
   1190c:	ebfffb3f 	bl	10610 <OS_CPU_SR_Restore>
   11910:	e59d1004 	ldr	r1, [sp, #4]
   11914:	e3a03000 	mov	r3, #0
   11918:	e5c13000 	strb	r3, [r1]
   1191c:	eafffff4 	b	118f4 <OSFlagQuery+0x30>

00011920 <OS_FlagInit>:
   11920:	e59f3048 	ldr	r3, [pc, #72]	; 11970 <OS_FlagInit+0x50>
   11924:	e3a02000 	mov	r2, #0
   11928:	e1a01003 	mov	r1, r3
   1192c:	e59f0040 	ldr	r0, [pc, #64]	; 11974 <OS_FlagInit+0x54>
   11930:	e92d0030 	push	{r4, r5}
   11934:	e283c030 	add	ip, r3, #48	; 0x30
   11938:	e2835018 	add	r5, r3, #24
   1193c:	e2834024 	add	r4, r3, #36	; 0x24
   11940:	e4c1200c 	strb	r2, [r1], #12
   11944:	e5835010 	str	r5, [r3, #16]
   11948:	e583401c 	str	r4, [r3, #28]
   1194c:	e583c028 	str	ip, [r3, #40]	; 0x28
   11950:	e5803000 	str	r3, [r0]
   11954:	e5831004 	str	r1, [r3, #4]
   11958:	e5c3200c 	strb	r2, [r3, #12]
   1195c:	e5c32018 	strb	r2, [r3, #24]
   11960:	e5c32024 	strb	r2, [r3, #36]	; 0x24
   11964:	e5832034 	str	r2, [r3, #52]	; 0x34
   11968:	e8bd0030 	pop	{r4, r5}
   1196c:	e12fff1e 	bx	lr
   11970:	00015f04 	andeq	r5, r1, r4, lsl #30
   11974:	000174c0 	andeq	r7, r1, r0, asr #9

00011978 <OS_FlagUnlink>:
   11978:	e5902004 	ldr	r2, [r0, #4]
   1197c:	e5903000 	ldr	r3, [r0]
   11980:	e3520000 	cmp	r2, #0
   11984:	0a000007 	beq	119a8 <OS_FlagUnlink+0x30>
   11988:	e3530000 	cmp	r3, #0
   1198c:	e5823000 	str	r3, [r2]
   11990:	0a000000 	beq	11998 <OS_FlagUnlink+0x20>
   11994:	e5832004 	str	r2, [r3, #4]
   11998:	e5903008 	ldr	r3, [r0, #8]
   1199c:	e3a02000 	mov	r2, #0
   119a0:	e5832024 	str	r2, [r3, #36]	; 0x24
   119a4:	e12fff1e 	bx	lr
   119a8:	e590100c 	ldr	r1, [r0, #12]
   119ac:	e3530000 	cmp	r3, #0
   119b0:	e5813004 	str	r3, [r1, #4]
   119b4:	1afffff6 	bne	11994 <OS_FlagUnlink+0x1c>
   119b8:	eafffff6 	b	11998 <OS_FlagUnlink+0x20>

000119bc <OSMboxAccept>:
   119bc:	e92d4038 	push	{r3, r4, r5, lr}
   119c0:	e2504000 	subs	r4, r0, #0
   119c4:	0a00000a 	beq	119f4 <OSMboxAccept+0x38>
   119c8:	e5d43000 	ldrb	r3, [r4]
   119cc:	e3530001 	cmp	r3, #1
   119d0:	13a05000 	movne	r5, #0
   119d4:	1a000004 	bne	119ec <OSMboxAccept+0x30>
   119d8:	ebfffb04 	bl	105f0 <OS_CPU_SR_Save>
   119dc:	e3a03000 	mov	r3, #0
   119e0:	e5945004 	ldr	r5, [r4, #4]
   119e4:	e5843004 	str	r3, [r4, #4]
   119e8:	ebfffb08 	bl	10610 <OS_CPU_SR_Restore>
   119ec:	e1a00005 	mov	r0, r5
   119f0:	e8bd8038 	pop	{r3, r4, r5, pc}
   119f4:	e1a05004 	mov	r5, r4
   119f8:	eafffffb 	b	119ec <OSMboxAccept+0x30>

000119fc <OSMboxCreate>:
   119fc:	e92d4070 	push	{r4, r5, r6, lr}
   11a00:	e59f3078 	ldr	r3, [pc, #120]	; 11a80 <OSMboxCreate+0x84>
   11a04:	e1a06000 	mov	r6, r0
   11a08:	e5d35000 	ldrb	r5, [r3]
   11a0c:	e3550000 	cmp	r5, #0
   11a10:	13a04000 	movne	r4, #0
   11a14:	1a000014 	bne	11a6c <OSMboxCreate+0x70>
   11a18:	ebfffaf4 	bl	105f0 <OS_CPU_SR_Save>
   11a1c:	e59f3060 	ldr	r3, [pc, #96]	; 11a84 <OSMboxCreate+0x88>
   11a20:	e5934000 	ldr	r4, [r3]
   11a24:	e3540000 	cmp	r4, #0
   11a28:	0a000011 	beq	11a74 <OSMboxCreate+0x78>
   11a2c:	e5942004 	ldr	r2, [r4, #4]
   11a30:	e5832000 	str	r2, [r3]
   11a34:	ebfffaf5 	bl	10610 <OS_CPU_SR_Restore>
   11a38:	e3a03001 	mov	r3, #1
   11a3c:	e1c450b2 	strh	r5, [r4, #2]
   11a40:	e5846004 	str	r6, [r4, #4]
   11a44:	e5c45001 	strb	r5, [r4, #1]
   11a48:	e5c45008 	strb	r5, [r4, #8]
   11a4c:	e5c45009 	strb	r5, [r4, #9]
   11a50:	e5c4500a 	strb	r5, [r4, #10]
   11a54:	e5c4500b 	strb	r5, [r4, #11]
   11a58:	e5c4500c 	strb	r5, [r4, #12]
   11a5c:	e5c4500d 	strb	r5, [r4, #13]
   11a60:	e5c4500e 	strb	r5, [r4, #14]
   11a64:	e5c4500f 	strb	r5, [r4, #15]
   11a68:	e5c43000 	strb	r3, [r4]
   11a6c:	e1a00004 	mov	r0, r4
   11a70:	e8bd8070 	pop	{r4, r5, r6, pc}
   11a74:	ebfffae5 	bl	10610 <OS_CPU_SR_Restore>
   11a78:	e1a00004 	mov	r0, r4
   11a7c:	e8bd8070 	pop	{r4, r5, r6, pc}
   11a80:	00016851 	andeq	r6, r1, r1, asr r8
   11a84:	0001684c 	andeq	r6, r1, ip, asr #16

00011a88 <OSMboxDel>:
   11a88:	e92d40f0 	push	{r4, r5, r6, r7, lr}
   11a8c:	e59f3124 	ldr	r3, [pc, #292]	; 11bb8 <OSMboxDel+0x130>
   11a90:	e24dd00c 	sub	sp, sp, #12
   11a94:	e5d33000 	ldrb	r3, [r3]
   11a98:	e1a04000 	mov	r4, r0
   11a9c:	e3530000 	cmp	r3, #0
   11aa0:	13e03073 	mvnne	r3, #115	; 0x73
   11aa4:	e1a05002 	mov	r5, r2
   11aa8:	15c23000 	strbne	r3, [r2]
   11aac:	1a000008 	bne	11ad4 <OSMboxDel+0x4c>
   11ab0:	e3500000 	cmp	r0, #0
   11ab4:	03a03004 	moveq	r3, #4
   11ab8:	05c23000 	strbeq	r3, [r2]
   11abc:	0a000004 	beq	11ad4 <OSMboxDel+0x4c>
   11ac0:	e5d03000 	ldrb	r3, [r0]
   11ac4:	e3530001 	cmp	r3, #1
   11ac8:	0a000004 	beq	11ae0 <OSMboxDel+0x58>
   11acc:	e3a03001 	mov	r3, #1
   11ad0:	e5c23000 	strb	r3, [r2]
   11ad4:	e1a00004 	mov	r0, r4
   11ad8:	e28dd00c 	add	sp, sp, #12
   11adc:	e8bd80f0 	pop	{r4, r5, r6, r7, pc}
   11ae0:	e58d1004 	str	r1, [sp, #4]
   11ae4:	ebfffac1 	bl	105f0 <OS_CPU_SR_Save>
   11ae8:	e5d46001 	ldrb	r6, [r4, #1]
   11aec:	e59d1004 	ldr	r1, [sp, #4]
   11af0:	e2966000 	adds	r6, r6, #0
   11af4:	13a06001 	movne	r6, #1
   11af8:	e3510000 	cmp	r1, #0
   11afc:	e1a07000 	mov	r7, r0
   11b00:	1a000005 	bne	11b1c <OSMboxDel+0x94>
   11b04:	e3560000 	cmp	r6, #0
   11b08:	0a00001f 	beq	11b8c <OSMboxDel+0x104>
   11b0c:	ebfffabf 	bl	10610 <OS_CPU_SR_Restore>
   11b10:	e3a03008 	mov	r3, #8
   11b14:	e5c53000 	strb	r3, [r5]
   11b18:	eaffffed 	b	11ad4 <OSMboxDel+0x4c>
   11b1c:	e3510001 	cmp	r1, #1
   11b20:	0a000003 	beq	11b34 <OSMboxDel+0xac>
   11b24:	ebfffab9 	bl	10610 <OS_CPU_SR_Restore>
   11b28:	e3a03007 	mov	r3, #7
   11b2c:	e5c53000 	strb	r3, [r5]
   11b30:	eaffffe7 	b	11ad4 <OSMboxDel+0x4c>
   11b34:	e3560000 	cmp	r6, #0
   11b38:	0a000006 	beq	11b58 <OSMboxDel+0xd0>
   11b3c:	e1a00004 	mov	r0, r4
   11b40:	e3a01000 	mov	r1, #0
   11b44:	e3a02002 	mov	r2, #2
   11b48:	ebfffc3c 	bl	10c40 <OS_EventTaskRdy>
   11b4c:	e5d43001 	ldrb	r3, [r4, #1]
   11b50:	e3530000 	cmp	r3, #0
   11b54:	1afffff8 	bne	11b3c <OSMboxDel+0xb4>
   11b58:	e59f305c 	ldr	r3, [pc, #92]	; 11bbc <OSMboxDel+0x134>
   11b5c:	e3a02000 	mov	r2, #0
   11b60:	e5c42000 	strb	r2, [r4]
   11b64:	e5932000 	ldr	r2, [r3]
   11b68:	e1a00007 	mov	r0, r7
   11b6c:	e5842004 	str	r2, [r4, #4]
   11b70:	e5834000 	str	r4, [r3]
   11b74:	ebfffaa5 	bl	10610 <OS_CPU_SR_Restore>
   11b78:	e3560001 	cmp	r6, #1
   11b7c:	0a00000b 	beq	11bb0 <OSMboxDel+0x128>
   11b80:	e3a04000 	mov	r4, #0
   11b84:	e5c54000 	strb	r4, [r5]
   11b88:	eaffffd1 	b	11ad4 <OSMboxDel+0x4c>
   11b8c:	e59f3028 	ldr	r3, [pc, #40]	; 11bbc <OSMboxDel+0x134>
   11b90:	e5c46000 	strb	r6, [r4]
   11b94:	e5932000 	ldr	r2, [r3]
   11b98:	e5834000 	str	r4, [r3]
   11b9c:	e5842004 	str	r2, [r4, #4]
   11ba0:	ebfffa9a 	bl	10610 <OS_CPU_SR_Restore>
   11ba4:	e1a04006 	mov	r4, r6
   11ba8:	e5c56000 	strb	r6, [r5]
   11bac:	eaffffc8 	b	11ad4 <OSMboxDel+0x4c>
   11bb0:	ebfffc88 	bl	10dd8 <OS_Sched>
   11bb4:	eafffff1 	b	11b80 <OSMboxDel+0xf8>
   11bb8:	00016851 	andeq	r6, r1, r1, asr r8
   11bbc:	0001684c 	andeq	r6, r1, ip, asr #16

00011bc0 <OSMboxPend>:
   11bc0:	e92d45f8 	push	{r3, r4, r5, r6, r7, r8, sl, lr}
   11bc4:	e59f30f8 	ldr	r3, [pc, #248]	; 11cc4 <OSMboxPend+0x104>
   11bc8:	e1a04000 	mov	r4, r0
   11bcc:	e5d35000 	ldrb	r5, [r3]
   11bd0:	e1a08001 	mov	r8, r1
   11bd4:	e3550000 	cmp	r5, #0
   11bd8:	13a03002 	movne	r3, #2
   11bdc:	e1a07002 	mov	r7, r2
   11be0:	15c23000 	strbne	r3, [r2]
   11be4:	13a06000 	movne	r6, #0
   11be8:	1a00000f 	bne	11c2c <OSMboxPend+0x6c>
   11bec:	e3500000 	cmp	r0, #0
   11bf0:	03a03004 	moveq	r3, #4
   11bf4:	01a06000 	moveq	r6, r0
   11bf8:	05c23000 	strbeq	r3, [r2]
   11bfc:	0a00000a 	beq	11c2c <OSMboxPend+0x6c>
   11c00:	e5d03000 	ldrb	r3, [r0]
   11c04:	e3530001 	cmp	r3, #1
   11c08:	1a000009 	bne	11c34 <OSMboxPend+0x74>
   11c0c:	ebfffa77 	bl	105f0 <OS_CPU_SR_Save>
   11c10:	e5946004 	ldr	r6, [r4, #4]
   11c14:	e1a0a000 	mov	sl, r0
   11c18:	e3560000 	cmp	r6, #0
   11c1c:	0a000009 	beq	11c48 <OSMboxPend+0x88>
   11c20:	e5845004 	str	r5, [r4, #4]
   11c24:	ebfffa79 	bl	10610 <OS_CPU_SR_Restore>
   11c28:	e5c75000 	strb	r5, [r7]
   11c2c:	e1a00006 	mov	r0, r6
   11c30:	e8bd85f8 	pop	{r3, r4, r5, r6, r7, r8, sl, pc}
   11c34:	e3a03001 	mov	r3, #1
   11c38:	e1a06005 	mov	r6, r5
   11c3c:	e5c23000 	strb	r3, [r2]
   11c40:	e1a00006 	mov	r0, r6
   11c44:	e8bd85f8 	pop	{r3, r4, r5, r6, r7, r8, sl, pc}
   11c48:	e59f6078 	ldr	r6, [pc, #120]	; 11cc8 <OSMboxPend+0x108>
   11c4c:	e1a00004 	mov	r0, r4
   11c50:	e5963000 	ldr	r3, [r6]
   11c54:	e5d3202c 	ldrb	r2, [r3, #44]	; 0x2c
   11c58:	e1c382ba 	strh	r8, [r3, #42]	; 0x2a
   11c5c:	e3822002 	orr	r2, r2, #2
   11c60:	e5c3202c 	strb	r2, [r3, #44]	; 0x2c
   11c64:	ebfffc21 	bl	10cf0 <OS_EventTaskWait>
   11c68:	e1a0000a 	mov	r0, sl
   11c6c:	ebfffa67 	bl	10610 <OS_CPU_SR_Restore>
   11c70:	ebfffc58 	bl	10dd8 <OS_Sched>
   11c74:	ebfffa5d 	bl	105f0 <OS_CPU_SR_Save>
   11c78:	e5963000 	ldr	r3, [r6]
   11c7c:	e1a08000 	mov	r8, r0
   11c80:	e5936020 	ldr	r6, [r3, #32]
   11c84:	e3560000 	cmp	r6, #0
   11c88:	0a000006 	beq	11ca8 <OSMboxPend+0xe8>
   11c8c:	e5835020 	str	r5, [r3, #32]
   11c90:	e5c3502c 	strb	r5, [r3, #44]	; 0x2c
   11c94:	e583501c 	str	r5, [r3, #28]
   11c98:	ebfffa5c 	bl	10610 <OS_CPU_SR_Restore>
   11c9c:	e5c75000 	strb	r5, [r7]
   11ca0:	e1a00006 	mov	r0, r6
   11ca4:	e8bd85f8 	pop	{r3, r4, r5, r6, r7, r8, sl, pc}
   11ca8:	e1a00004 	mov	r0, r4
   11cac:	ebfffc2c 	bl	10d64 <OS_EventTO>
   11cb0:	e1a00008 	mov	r0, r8
   11cb4:	ebfffa55 	bl	10610 <OS_CPU_SR_Restore>
   11cb8:	e3a0300a 	mov	r3, #10
   11cbc:	e5c73000 	strb	r3, [r7]
   11cc0:	eaffffd9 	b	11c2c <OSMboxPend+0x6c>
   11cc4:	00016851 	andeq	r6, r1, r1, asr r8
   11cc8:	00016854 	andeq	r6, r1, r4, asr r8

00011ccc <OSMboxPost>:
   11ccc:	e92d4030 	push	{r4, r5, lr}
   11cd0:	e2504000 	subs	r4, r0, #0
   11cd4:	e24dd00c 	sub	sp, sp, #12
   11cd8:	03a00004 	moveq	r0, #4
   11cdc:	0a000006 	beq	11cfc <OSMboxPost+0x30>
   11ce0:	e3510000 	cmp	r1, #0
   11ce4:	03a00003 	moveq	r0, #3
   11ce8:	0a000003 	beq	11cfc <OSMboxPost+0x30>
   11cec:	e5d43000 	ldrb	r3, [r4]
   11cf0:	e3530001 	cmp	r3, #1
   11cf4:	13a00001 	movne	r0, #1
   11cf8:	0a000001 	beq	11d04 <OSMboxPost+0x38>
   11cfc:	e28dd00c 	add	sp, sp, #12
   11d00:	e8bd8030 	pop	{r4, r5, pc}
   11d04:	e58d1004 	str	r1, [sp, #4]
   11d08:	ebfffa38 	bl	105f0 <OS_CPU_SR_Save>
   11d0c:	e5d43001 	ldrb	r3, [r4, #1]
   11d10:	e1a05000 	mov	r5, r0
   11d14:	e3530000 	cmp	r3, #0
   11d18:	e59d1004 	ldr	r1, [sp, #4]
   11d1c:	1a000005 	bne	11d38 <OSMboxPost+0x6c>
   11d20:	e5945004 	ldr	r5, [r4, #4]
   11d24:	e3550000 	cmp	r5, #0
   11d28:	0a00000a 	beq	11d58 <OSMboxPost+0x8c>
   11d2c:	ebfffa37 	bl	10610 <OS_CPU_SR_Restore>
   11d30:	e3a00014 	mov	r0, #20
   11d34:	eafffff0 	b	11cfc <OSMboxPost+0x30>
   11d38:	e3a02002 	mov	r2, #2
   11d3c:	e1a00004 	mov	r0, r4
   11d40:	ebfffbbe 	bl	10c40 <OS_EventTaskRdy>
   11d44:	e1a00005 	mov	r0, r5
   11d48:	ebfffa30 	bl	10610 <OS_CPU_SR_Restore>
   11d4c:	ebfffc21 	bl	10dd8 <OS_Sched>
   11d50:	e3a00000 	mov	r0, #0
   11d54:	eaffffe8 	b	11cfc <OSMboxPost+0x30>
   11d58:	e5841004 	str	r1, [r4, #4]
   11d5c:	ebfffa2b 	bl	10610 <OS_CPU_SR_Restore>
   11d60:	e1a00005 	mov	r0, r5
   11d64:	eaffffe4 	b	11cfc <OSMboxPost+0x30>

00011d68 <OSMboxPostOpt>:
   11d68:	e92d4070 	push	{r4, r5, r6, lr}
   11d6c:	e2504000 	subs	r4, r0, #0
   11d70:	e24dd008 	sub	sp, sp, #8
   11d74:	e1a05001 	mov	r5, r1
   11d78:	03a00004 	moveq	r0, #4
   11d7c:	0a000006 	beq	11d9c <OSMboxPostOpt+0x34>
   11d80:	e3510000 	cmp	r1, #0
   11d84:	03a00003 	moveq	r0, #3
   11d88:	0a000003 	beq	11d9c <OSMboxPostOpt+0x34>
   11d8c:	e5d43000 	ldrb	r3, [r4]
   11d90:	e3530001 	cmp	r3, #1
   11d94:	13a00001 	movne	r0, #1
   11d98:	0a000001 	beq	11da4 <OSMboxPostOpt+0x3c>
   11d9c:	e28dd008 	add	sp, sp, #8
   11da0:	e8bd8070 	pop	{r4, r5, r6, pc}
   11da4:	e58d2004 	str	r2, [sp, #4]
   11da8:	ebfffa10 	bl	105f0 <OS_CPU_SR_Save>
   11dac:	e5d43001 	ldrb	r3, [r4, #1]
   11db0:	e1a06000 	mov	r6, r0
   11db4:	e3530000 	cmp	r3, #0
   11db8:	e59d2004 	ldr	r2, [sp, #4]
   11dbc:	0a00000d 	beq	11df8 <OSMboxPostOpt+0x90>
   11dc0:	e3120001 	tst	r2, #1
   11dc4:	0a000011 	beq	11e10 <OSMboxPostOpt+0xa8>
   11dc8:	e1a00004 	mov	r0, r4
   11dcc:	e1a01005 	mov	r1, r5
   11dd0:	e3a02002 	mov	r2, #2
   11dd4:	ebfffb99 	bl	10c40 <OS_EventTaskRdy>
   11dd8:	e5d43001 	ldrb	r3, [r4, #1]
   11ddc:	e3530000 	cmp	r3, #0
   11de0:	1afffff8 	bne	11dc8 <OSMboxPostOpt+0x60>
   11de4:	e1a00006 	mov	r0, r6
   11de8:	ebfffa08 	bl	10610 <OS_CPU_SR_Restore>
   11dec:	ebfffbf9 	bl	10dd8 <OS_Sched>
   11df0:	e3a00000 	mov	r0, #0
   11df4:	eaffffe8 	b	11d9c <OSMboxPostOpt+0x34>
   11df8:	e5946004 	ldr	r6, [r4, #4]
   11dfc:	e3560000 	cmp	r6, #0
   11e00:	0a000007 	beq	11e24 <OSMboxPostOpt+0xbc>
   11e04:	ebfffa01 	bl	10610 <OS_CPU_SR_Restore>
   11e08:	e3a00014 	mov	r0, #20
   11e0c:	eaffffe2 	b	11d9c <OSMboxPostOpt+0x34>
   11e10:	e1a00004 	mov	r0, r4
   11e14:	e1a01005 	mov	r1, r5
   11e18:	e3a02002 	mov	r2, #2
   11e1c:	ebfffb87 	bl	10c40 <OS_EventTaskRdy>
   11e20:	eaffffef 	b	11de4 <OSMboxPostOpt+0x7c>
   11e24:	e5845004 	str	r5, [r4, #4]
   11e28:	ebfff9f8 	bl	10610 <OS_CPU_SR_Restore>
   11e2c:	e1a00006 	mov	r0, r6
   11e30:	eaffffd9 	b	11d9c <OSMboxPostOpt+0x34>

00011e34 <OSMboxQuery>:
   11e34:	e92d4010 	push	{r4, lr}
   11e38:	e2504000 	subs	r4, r0, #0
   11e3c:	e24dd008 	sub	sp, sp, #8
   11e40:	03a00004 	moveq	r0, #4
   11e44:	0a000003 	beq	11e58 <OSMboxQuery+0x24>
   11e48:	e5d43000 	ldrb	r3, [r4]
   11e4c:	e3530001 	cmp	r3, #1
   11e50:	13a00001 	movne	r0, #1
   11e54:	0a000001 	beq	11e60 <OSMboxQuery+0x2c>
   11e58:	e28dd008 	add	sp, sp, #8
   11e5c:	e8bd8010 	pop	{r4, pc}
   11e60:	e58d1004 	str	r1, [sp, #4]
   11e64:	ebfff9e1 	bl	105f0 <OS_CPU_SR_Save>
   11e68:	e5d43001 	ldrb	r3, [r4, #1]
   11e6c:	e59d1004 	ldr	r1, [sp, #4]
   11e70:	e5c1300c 	strb	r3, [r1, #12]
   11e74:	e5d43008 	ldrb	r3, [r4, #8]
   11e78:	e5c13004 	strb	r3, [r1, #4]
   11e7c:	e5d43009 	ldrb	r3, [r4, #9]
   11e80:	e5c13005 	strb	r3, [r1, #5]
   11e84:	e5d4300a 	ldrb	r3, [r4, #10]
   11e88:	e5c13006 	strb	r3, [r1, #6]
   11e8c:	e5d4300b 	ldrb	r3, [r4, #11]
   11e90:	e5c13007 	strb	r3, [r1, #7]
   11e94:	e5d4300c 	ldrb	r3, [r4, #12]
   11e98:	e5c13008 	strb	r3, [r1, #8]
   11e9c:	e5d4300d 	ldrb	r3, [r4, #13]
   11ea0:	e5c13009 	strb	r3, [r1, #9]
   11ea4:	e5d4300e 	ldrb	r3, [r4, #14]
   11ea8:	e5c1300a 	strb	r3, [r1, #10]
   11eac:	e5d4300f 	ldrb	r3, [r4, #15]
   11eb0:	e5c1300b 	strb	r3, [r1, #11]
   11eb4:	e5943004 	ldr	r3, [r4, #4]
   11eb8:	e5813000 	str	r3, [r1]
   11ebc:	ebfff9d3 	bl	10610 <OS_CPU_SR_Restore>
   11ec0:	e3a00000 	mov	r0, #0
   11ec4:	eaffffe3 	b	11e58 <OSMboxQuery+0x24>

00011ec8 <OSMemCreate>:
   11ec8:	e92d4ff8 	push	{r3, r4, r5, r6, r7, r8, r9, sl, fp, lr}
   11ecc:	e2509000 	subs	r9, r0, #0
   11ed0:	e1a0a003 	mov	sl, r3
   11ed4:	03a03076 	moveq	r3, #118	; 0x76
   11ed8:	e1a0b001 	mov	fp, r1
   11edc:	e1a07002 	mov	r7, r2
   11ee0:	01a08009 	moveq	r8, r9
   11ee4:	05ca3000 	strbeq	r3, [sl]
   11ee8:	0a000028 	beq	11f90 <OSMemCreate+0xc8>
   11eec:	e3510001 	cmp	r1, #1
   11ef0:	93a0306f 	movls	r3, #111	; 0x6f
   11ef4:	95ca3000 	strbls	r3, [sl]
   11ef8:	93a08000 	movls	r8, #0
   11efc:	9a000023 	bls	11f90 <OSMemCreate+0xc8>
   11f00:	e3520003 	cmp	r2, #3
   11f04:	93a03070 	movls	r3, #112	; 0x70
   11f08:	95ca3000 	strbls	r3, [sl]
   11f0c:	93a08000 	movls	r8, #0
   11f10:	9a00001e 	bls	11f90 <OSMemCreate+0xc8>
   11f14:	ebfff9b5 	bl	105f0 <OS_CPU_SR_Save>
   11f18:	e59f308c 	ldr	r3, [pc, #140]	; 11fac <OSMemCreate+0xe4>
   11f1c:	e5938000 	ldr	r8, [r3]
   11f20:	e3580000 	cmp	r8, #0
   11f24:	0a00001b 	beq	11f98 <OSMemCreate+0xd0>
   11f28:	e5982004 	ldr	r2, [r8, #4]
   11f2c:	e1a05009 	mov	r5, r9
   11f30:	e5832000 	str	r2, [r3]
   11f34:	ebfff9b5 	bl	10610 <OS_CPU_SR_Restore>
   11f38:	e0891007 	add	r1, r9, r7
   11f3c:	e1a0c001 	mov	ip, r1
   11f40:	e24b2001 	sub	r2, fp, #1
   11f44:	e3a04000 	mov	r4, #0
   11f48:	ea000000 	b	11f50 <OSMemCreate+0x88>
   11f4c:	e1a0c006 	mov	ip, r6
   11f50:	e2844001 	add	r4, r4, #1
   11f54:	e1540002 	cmp	r4, r2
   11f58:	e585c000 	str	ip, [r5]
   11f5c:	e08c6007 	add	r6, ip, r7
   11f60:	e1a0500c 	mov	r5, ip
   11f64:	1afffff8 	bne	11f4c <OSMemCreate+0x84>
   11f68:	e24b2002 	sub	r2, fp, #2
   11f6c:	e0020297 	mul	r2, r7, r2
   11f70:	e3a03000 	mov	r3, #0
   11f74:	e7813002 	str	r3, [r1, r2]
   11f78:	e5889000 	str	r9, [r8]
   11f7c:	e5889004 	str	r9, [r8, #4]
   11f80:	e588b010 	str	fp, [r8, #16]
   11f84:	e588b00c 	str	fp, [r8, #12]
   11f88:	e5887008 	str	r7, [r8, #8]
   11f8c:	e5ca3000 	strb	r3, [sl]
   11f90:	e1a00008 	mov	r0, r8
   11f94:	e8bd8ff8 	pop	{r3, r4, r5, r6, r7, r8, r9, sl, fp, pc}
   11f98:	ebfff99c 	bl	10610 <OS_CPU_SR_Restore>
   11f9c:	e3a0306e 	mov	r3, #110	; 0x6e
   11fa0:	e5ca3000 	strb	r3, [sl]
   11fa4:	e1a00008 	mov	r0, r8
   11fa8:	e8bd8ff8 	pop	{r3, r4, r5, r6, r7, r8, r9, sl, fp, pc}
   11fac:	000167bc 			; <UNDEFINED> instruction: 0x000167bc

00011fb0 <OSMemGet>:
   11fb0:	e92d40f8 	push	{r3, r4, r5, r6, r7, lr}
   11fb4:	e2504000 	subs	r4, r0, #0
   11fb8:	03a03074 	moveq	r3, #116	; 0x74
   11fbc:	e1a07001 	mov	r7, r1
   11fc0:	01a06004 	moveq	r6, r4
   11fc4:	05c13000 	strbeq	r3, [r1]
   11fc8:	0a00000b 	beq	11ffc <OSMemGet+0x4c>
   11fcc:	ebfff987 	bl	105f0 <OS_CPU_SR_Save>
   11fd0:	e5945010 	ldr	r5, [r4, #16]
   11fd4:	e3550000 	cmp	r5, #0
   11fd8:	0a000009 	beq	12004 <OSMemGet+0x54>
   11fdc:	e5946004 	ldr	r6, [r4, #4]
   11fe0:	e2455001 	sub	r5, r5, #1
   11fe4:	e5963000 	ldr	r3, [r6]
   11fe8:	e5845010 	str	r5, [r4, #16]
   11fec:	e5843004 	str	r3, [r4, #4]
   11ff0:	ebfff986 	bl	10610 <OS_CPU_SR_Restore>
   11ff4:	e3a03000 	mov	r3, #0
   11ff8:	e5c73000 	strb	r3, [r7]
   11ffc:	e1a00006 	mov	r0, r6
   12000:	e8bd80f8 	pop	{r3, r4, r5, r6, r7, pc}
   12004:	ebfff981 	bl	10610 <OS_CPU_SR_Restore>
   12008:	e3a03071 	mov	r3, #113	; 0x71
   1200c:	e1a06005 	mov	r6, r5
   12010:	e5c73000 	strb	r3, [r7]
   12014:	eafffff8 	b	11ffc <OSMemGet+0x4c>

00012018 <OSMemPut>:
   12018:	e92d4038 	push	{r3, r4, r5, lr}
   1201c:	e2504000 	subs	r4, r0, #0
   12020:	e1a05001 	mov	r5, r1
   12024:	0a00000b 	beq	12058 <OSMemPut+0x40>
   12028:	e3510000 	cmp	r1, #0
   1202c:	0a000007 	beq	12050 <OSMemPut+0x38>
   12030:	ebfff96e 	bl	105f0 <OS_CPU_SR_Save>
   12034:	e5943010 	ldr	r3, [r4, #16]
   12038:	e594200c 	ldr	r2, [r4, #12]
   1203c:	e1530002 	cmp	r3, r2
   12040:	3a000006 	bcc	12060 <OSMemPut+0x48>
   12044:	ebfff971 	bl	10610 <OS_CPU_SR_Restore>
   12048:	e3a00072 	mov	r0, #114	; 0x72
   1204c:	e8bd8038 	pop	{r3, r4, r5, pc}
   12050:	e3a00073 	mov	r0, #115	; 0x73
   12054:	e8bd8038 	pop	{r3, r4, r5, pc}
   12058:	e3a00074 	mov	r0, #116	; 0x74
   1205c:	e8bd8038 	pop	{r3, r4, r5, pc}
   12060:	e5942004 	ldr	r2, [r4, #4]
   12064:	e2833001 	add	r3, r3, #1
   12068:	e5852000 	str	r2, [r5]
   1206c:	e5843010 	str	r3, [r4, #16]
   12070:	e5845004 	str	r5, [r4, #4]
   12074:	ebfff965 	bl	10610 <OS_CPU_SR_Restore>
   12078:	e3a00000 	mov	r0, #0
   1207c:	e8bd8038 	pop	{r3, r4, r5, pc}

00012080 <OSMemQuery>:
   12080:	e92d4038 	push	{r3, r4, r5, lr}
   12084:	e2505000 	subs	r5, r0, #0
   12088:	e1a04001 	mov	r4, r1
   1208c:	0a000014 	beq	120e4 <OSMemQuery+0x64>
   12090:	e3510000 	cmp	r1, #0
   12094:	0a000010 	beq	120dc <OSMemQuery+0x5c>
   12098:	ebfff954 	bl	105f0 <OS_CPU_SR_Save>
   1209c:	e595e000 	ldr	lr, [r5]
   120a0:	e595c004 	ldr	ip, [r5, #4]
   120a4:	e2851008 	add	r1, r5, #8
   120a8:	e891000e 	ldm	r1, {r1, r2, r3}
   120ac:	e584e000 	str	lr, [r4]
   120b0:	e584200c 	str	r2, [r4, #12]
   120b4:	e5843010 	str	r3, [r4, #16]
   120b8:	e584c004 	str	ip, [r4, #4]
   120bc:	e5841008 	str	r1, [r4, #8]
   120c0:	ebfff952 	bl	10610 <OS_CPU_SR_Restore>
   120c4:	e594200c 	ldr	r2, [r4, #12]
   120c8:	e5943010 	ldr	r3, [r4, #16]
   120cc:	e3a00000 	mov	r0, #0
   120d0:	e0633002 	rsb	r3, r3, r2
   120d4:	e5843014 	str	r3, [r4, #20]
   120d8:	e8bd8038 	pop	{r3, r4, r5, pc}
   120dc:	e3a00075 	mov	r0, #117	; 0x75
   120e0:	e8bd8038 	pop	{r3, r4, r5, pc}
   120e4:	e3a00074 	mov	r0, #116	; 0x74
   120e8:	e8bd8038 	pop	{r3, r4, r5, pc}

000120ec <OS_MemInit>:
   120ec:	e59f3064 	ldr	r3, [pc, #100]	; 12158 <OS_MemInit+0x6c>
   120f0:	e52d4004 	push	{r4}		; (str r4, [sp, #-4]!)
   120f4:	e3a02001 	mov	r2, #1
   120f8:	e2434014 	sub	r4, r3, #20
   120fc:	e3a01000 	mov	r1, #0
   12100:	e0820102 	add	r0, r2, r2, lsl #2
   12104:	e2822001 	add	r2, r2, #1
   12108:	e0840100 	add	r0, r4, r0, lsl #2
   1210c:	e3520005 	cmp	r2, #5
   12110:	e5030010 	str	r0, [r3, #-16]
   12114:	e5031014 	str	r1, [r3, #-20]	; 0xffffffec
   12118:	e5031004 	str	r1, [r3, #-4]
   1211c:	e5031008 	str	r1, [r3, #-8]
   12120:	e503100c 	str	r1, [r3, #-12]
   12124:	e59f0030 	ldr	r0, [pc, #48]	; 1215c <OS_MemInit+0x70>
   12128:	e2833014 	add	r3, r3, #20
   1212c:	e3a0c000 	mov	ip, #0
   12130:	1afffff2 	bne	12100 <OS_MemInit+0x14>
   12134:	e59f3024 	ldr	r3, [pc, #36]	; 12160 <OS_MemInit+0x74>
   12138:	e580c054 	str	ip, [r0, #84]	; 0x54
   1213c:	e580c050 	str	ip, [r0, #80]	; 0x50
   12140:	e580c060 	str	ip, [r0, #96]	; 0x60
   12144:	e580c05c 	str	ip, [r0, #92]	; 0x5c
   12148:	e580c058 	str	ip, [r0, #88]	; 0x58
   1214c:	e5830000 	str	r0, [r3]
   12150:	e8bd0010 	ldmfd	sp!, {r4}
   12154:	e12fff1e 	bx	lr
   12158:	00015f5c 	andeq	r5, r1, ip, asr pc
   1215c:	00015f48 	andeq	r5, r1, r8, asr #30
   12160:	000167bc 			; <UNDEFINED> instruction: 0x000167bc

00012164 <OSMutexAccept>:
   12164:	e92d4070 	push	{r4, r5, r6, lr}
   12168:	e59f30a4 	ldr	r3, [pc, #164]	; 12214 <OSMutexAccept+0xb0>
   1216c:	e1a05000 	mov	r5, r0
   12170:	e5d34000 	ldrb	r4, [r3]
   12174:	e1a06001 	mov	r6, r1
   12178:	e3540000 	cmp	r4, #0
   1217c:	1a000008 	bne	121a4 <OSMutexAccept+0x40>
   12180:	e3500000 	cmp	r0, #0
   12184:	0a000013 	beq	121d8 <OSMutexAccept+0x74>
   12188:	e5d03000 	ldrb	r3, [r0]
   1218c:	e3530004 	cmp	r3, #4
   12190:	0a000007 	beq	121b4 <OSMutexAccept+0x50>
   12194:	e3a03001 	mov	r3, #1
   12198:	e1a00004 	mov	r0, r4
   1219c:	e5c13000 	strb	r3, [r1]
   121a0:	e8bd8070 	pop	{r4, r5, r6, pc}
   121a4:	e3a03002 	mov	r3, #2
   121a8:	e5c13000 	strb	r3, [r1]
   121ac:	e3a00000 	mov	r0, #0
   121b0:	e8bd8070 	pop	{r4, r5, r6, pc}
   121b4:	ebfff90d 	bl	105f0 <OS_CPU_SR_Save>
   121b8:	e1d530b2 	ldrh	r3, [r5, #2]
   121bc:	e6ef2073 	uxtb	r2, r3
   121c0:	e35200ff 	cmp	r2, #255	; 0xff
   121c4:	0a000006 	beq	121e4 <OSMutexAccept+0x80>
   121c8:	ebfff910 	bl	10610 <OS_CPU_SR_Restore>
   121cc:	e5c64000 	strb	r4, [r6]
   121d0:	e1a00004 	mov	r0, r4
   121d4:	e8bd8070 	pop	{r4, r5, r6, pc}
   121d8:	e3a03004 	mov	r3, #4
   121dc:	e5c13000 	strb	r3, [r1]
   121e0:	e8bd8070 	pop	{r4, r5, r6, pc}
   121e4:	e59f202c 	ldr	r2, [pc, #44]	; 12218 <OSMutexAccept+0xb4>
   121e8:	e2033cff 	and	r3, r3, #65280	; 0xff00
   121ec:	e5922000 	ldr	r2, [r2]
   121f0:	e1c530b2 	strh	r3, [r5, #2]
   121f4:	e5d2102d 	ldrb	r1, [r2, #45]	; 0x2d
   121f8:	e5852004 	str	r2, [r5, #4]
   121fc:	e1833001 	orr	r3, r3, r1
   12200:	e1c530b2 	strh	r3, [r5, #2]
   12204:	ebfff901 	bl	10610 <OS_CPU_SR_Restore>
   12208:	e5c64000 	strb	r4, [r6]
   1220c:	e3a00001 	mov	r0, #1
   12210:	e8bd8070 	pop	{r4, r5, r6, pc}
   12214:	00016851 	andeq	r6, r1, r1, asr r8
   12218:	00016854 	andeq	r6, r1, r4, asr r8

0001221c <OSMutexCreate>:
   1221c:	e92d40f8 	push	{r3, r4, r5, r6, r7, lr}
   12220:	e59f30d4 	ldr	r3, [pc, #212]	; 122fc <OSMutexCreate+0xe0>
   12224:	e1a06000 	mov	r6, r0
   12228:	e5d34000 	ldrb	r4, [r3]
   1222c:	e1a07001 	mov	r7, r1
   12230:	e3540000 	cmp	r4, #0
   12234:	13e03072 	mvnne	r3, #114	; 0x72
   12238:	15c13000 	strbne	r3, [r1]
   1223c:	13a04000 	movne	r4, #0
   12240:	1a000021 	bne	122cc <OSMutexCreate+0xb0>
   12244:	e350003e 	cmp	r0, #62	; 0x3e
   12248:	83a0302a 	movhi	r3, #42	; 0x2a
   1224c:	85c13000 	strbhi	r3, [r1]
   12250:	8a00001d 	bhi	122cc <OSMutexCreate+0xb0>
   12254:	ebfff8e5 	bl	105f0 <OS_CPU_SR_Save>
   12258:	e59f30a0 	ldr	r3, [pc, #160]	; 12300 <OSMutexCreate+0xe4>
   1225c:	e7935106 	ldr	r5, [r3, r6, lsl #2]
   12260:	e3550000 	cmp	r5, #0
   12264:	1a00001a 	bne	122d4 <OSMutexCreate+0xb8>
   12268:	e59f2094 	ldr	r2, [pc, #148]	; 12304 <OSMutexCreate+0xe8>
   1226c:	e3a01001 	mov	r1, #1
   12270:	e5924000 	ldr	r4, [r2]
   12274:	e7831106 	str	r1, [r3, r6, lsl #2]
   12278:	e3540000 	cmp	r4, #0
   1227c:	0a000019 	beq	122e8 <OSMutexCreate+0xcc>
   12280:	e5943004 	ldr	r3, [r4, #4]
   12284:	e1a06406 	lsl	r6, r6, #8
   12288:	e5823000 	str	r3, [r2]
   1228c:	e38660ff 	orr	r6, r6, #255	; 0xff
   12290:	ebfff8de 	bl	10610 <OS_CPU_SR_Restore>
   12294:	e3a03004 	mov	r3, #4
   12298:	e1c460b2 	strh	r6, [r4, #2]
   1229c:	e5845004 	str	r5, [r4, #4]
   122a0:	e5c45001 	strb	r5, [r4, #1]
   122a4:	e5c45008 	strb	r5, [r4, #8]
   122a8:	e5c45009 	strb	r5, [r4, #9]
   122ac:	e5c4500a 	strb	r5, [r4, #10]
   122b0:	e5c4500b 	strb	r5, [r4, #11]
   122b4:	e5c4500c 	strb	r5, [r4, #12]
   122b8:	e5c4500d 	strb	r5, [r4, #13]
   122bc:	e5c4500e 	strb	r5, [r4, #14]
   122c0:	e5c4500f 	strb	r5, [r4, #15]
   122c4:	e5c43000 	strb	r3, [r4]
   122c8:	e5c75000 	strb	r5, [r7]
   122cc:	e1a00004 	mov	r0, r4
   122d0:	e8bd80f8 	pop	{r3, r4, r5, r6, r7, pc}
   122d4:	ebfff8cd 	bl	10610 <OS_CPU_SR_Restore>
   122d8:	e3a03028 	mov	r3, #40	; 0x28
   122dc:	e5c73000 	strb	r3, [r7]
   122e0:	e1a00004 	mov	r0, r4
   122e4:	e8bd80f8 	pop	{r3, r4, r5, r6, r7, pc}
   122e8:	e7834106 	str	r4, [r3, r6, lsl #2]
   122ec:	ebfff8c7 	bl	10610 <OS_CPU_SR_Restore>
   122f0:	e3a03004 	mov	r3, #4
   122f4:	e5c73000 	strb	r3, [r7]
   122f8:	eafffff3 	b	122cc <OSMutexCreate+0xb0>
   122fc:	00016851 	andeq	r6, r1, r1, asr r8
   12300:	000174c8 	andeq	r7, r1, r8, asr #9
   12304:	0001684c 	andeq	r6, r1, ip, asr #16

00012308 <OSMutexDel>:
   12308:	e92d40f0 	push	{r4, r5, r6, r7, lr}
   1230c:	e59f3144 	ldr	r3, [pc, #324]	; 12458 <OSMutexDel+0x150>
   12310:	e24dd00c 	sub	sp, sp, #12
   12314:	e5d33000 	ldrb	r3, [r3]
   12318:	e1a04000 	mov	r4, r0
   1231c:	e3530000 	cmp	r3, #0
   12320:	13e03073 	mvnne	r3, #115	; 0x73
   12324:	e1a05002 	mov	r5, r2
   12328:	15c23000 	strbne	r3, [r2]
   1232c:	1a000008 	bne	12354 <OSMutexDel+0x4c>
   12330:	e3500000 	cmp	r0, #0
   12334:	03a03004 	moveq	r3, #4
   12338:	05c23000 	strbeq	r3, [r2]
   1233c:	0a000004 	beq	12354 <OSMutexDel+0x4c>
   12340:	e5d03000 	ldrb	r3, [r0]
   12344:	e3530004 	cmp	r3, #4
   12348:	0a000004 	beq	12360 <OSMutexDel+0x58>
   1234c:	e3a03001 	mov	r3, #1
   12350:	e5c23000 	strb	r3, [r2]
   12354:	e1a00004 	mov	r0, r4
   12358:	e28dd00c 	add	sp, sp, #12
   1235c:	e8bd80f0 	pop	{r4, r5, r6, r7, pc}
   12360:	e58d1004 	str	r1, [sp, #4]
   12364:	ebfff8a1 	bl	105f0 <OS_CPU_SR_Save>
   12368:	e5d46001 	ldrb	r6, [r4, #1]
   1236c:	e59d1004 	ldr	r1, [sp, #4]
   12370:	e2966000 	adds	r6, r6, #0
   12374:	13a06001 	movne	r6, #1
   12378:	e3510000 	cmp	r1, #0
   1237c:	e1a07000 	mov	r7, r0
   12380:	1a000005 	bne	1239c <OSMutexDel+0x94>
   12384:	e3560000 	cmp	r6, #0
   12388:	0a000023 	beq	1241c <OSMutexDel+0x114>
   1238c:	ebfff89f 	bl	10610 <OS_CPU_SR_Restore>
   12390:	e3a03008 	mov	r3, #8
   12394:	e5c53000 	strb	r3, [r5]
   12398:	eaffffed 	b	12354 <OSMutexDel+0x4c>
   1239c:	e3510001 	cmp	r1, #1
   123a0:	0a000003 	beq	123b4 <OSMutexDel+0xac>
   123a4:	ebfff899 	bl	10610 <OS_CPU_SR_Restore>
   123a8:	e3a03007 	mov	r3, #7
   123ac:	e5c53000 	strb	r3, [r5]
   123b0:	eaffffe7 	b	12354 <OSMutexDel+0x4c>
   123b4:	e3560000 	cmp	r6, #0
   123b8:	0a000006 	beq	123d8 <OSMutexDel+0xd0>
   123bc:	e1a00004 	mov	r0, r4
   123c0:	e3a01000 	mov	r1, #0
   123c4:	e3a02010 	mov	r2, #16
   123c8:	ebfffa1c 	bl	10c40 <OS_EventTaskRdy>
   123cc:	e5d43001 	ldrb	r3, [r4, #1]
   123d0:	e3530000 	cmp	r3, #0
   123d4:	1afffff8 	bne	123bc <OSMutexDel+0xb4>
   123d8:	e1d400b2 	ldrh	r0, [r4, #2]
   123dc:	e59f1078 	ldr	r1, [pc, #120]	; 1245c <OSMutexDel+0x154>
   123e0:	e3a02000 	mov	r2, #0
   123e4:	e59f3074 	ldr	r3, [pc, #116]	; 12460 <OSMutexDel+0x158>
   123e8:	e1a00420 	lsr	r0, r0, #8
   123ec:	e7812100 	str	r2, [r1, r0, lsl #2]
   123f0:	e5c42000 	strb	r2, [r4]
   123f4:	e5932000 	ldr	r2, [r3]
   123f8:	e1a00007 	mov	r0, r7
   123fc:	e5842004 	str	r2, [r4, #4]
   12400:	e5834000 	str	r4, [r3]
   12404:	ebfff881 	bl	10610 <OS_CPU_SR_Restore>
   12408:	e3560001 	cmp	r6, #1
   1240c:	0a00000f 	beq	12450 <OSMutexDel+0x148>
   12410:	e3a04000 	mov	r4, #0
   12414:	e5c54000 	strb	r4, [r5]
   12418:	eaffffcd 	b	12354 <OSMutexDel+0x4c>
   1241c:	e1d410b2 	ldrh	r1, [r4, #2]
   12420:	e59f2034 	ldr	r2, [pc, #52]	; 1245c <OSMutexDel+0x154>
   12424:	e59f3034 	ldr	r3, [pc, #52]	; 12460 <OSMutexDel+0x158>
   12428:	e1a01421 	lsr	r1, r1, #8
   1242c:	e7826101 	str	r6, [r2, r1, lsl #2]
   12430:	e5c46000 	strb	r6, [r4]
   12434:	e5932000 	ldr	r2, [r3]
   12438:	e5834000 	str	r4, [r3]
   1243c:	e5842004 	str	r2, [r4, #4]
   12440:	ebfff872 	bl	10610 <OS_CPU_SR_Restore>
   12444:	e1a04006 	mov	r4, r6
   12448:	e5c56000 	strb	r6, [r5]
   1244c:	eaffffc0 	b	12354 <OSMutexDel+0x4c>
   12450:	ebfffa60 	bl	10dd8 <OS_Sched>
   12454:	eaffffed 	b	12410 <OSMutexDel+0x108>
   12458:	00016851 	andeq	r6, r1, r1, asr r8
   1245c:	000174c8 	andeq	r7, r1, r8, asr #9
   12460:	0001684c 	andeq	r6, r1, ip, asr #16

00012464 <OSMutexPend>:
   12464:	e92d4ff0 	push	{r4, r5, r6, r7, r8, r9, sl, fp, lr}
   12468:	e59f31f8 	ldr	r3, [pc, #504]	; 12668 <OSMutexPend+0x204>
   1246c:	e24dd014 	sub	sp, sp, #20
   12470:	e5d36000 	ldrb	r6, [r3]
   12474:	e1a04000 	mov	r4, r0
   12478:	e3560000 	cmp	r6, #0
   1247c:	13a03002 	movne	r3, #2
   12480:	e1a05002 	mov	r5, r2
   12484:	15c23000 	strbne	r3, [r2]
   12488:	1a000008 	bne	124b0 <OSMutexPend+0x4c>
   1248c:	e3500000 	cmp	r0, #0
   12490:	03a03004 	moveq	r3, #4
   12494:	05c23000 	strbeq	r3, [r2]
   12498:	0a000004 	beq	124b0 <OSMutexPend+0x4c>
   1249c:	e5d03000 	ldrb	r3, [r0]
   124a0:	e3530004 	cmp	r3, #4
   124a4:	0a000003 	beq	124b8 <OSMutexPend+0x54>
   124a8:	e3a03001 	mov	r3, #1
   124ac:	e5c23000 	strb	r3, [r2]
   124b0:	e28dd014 	add	sp, sp, #20
   124b4:	e8bd8ff0 	pop	{r4, r5, r6, r7, r8, r9, sl, fp, pc}
   124b8:	e58d1008 	str	r1, [sp, #8]
   124bc:	ebfff84b 	bl	105f0 <OS_CPU_SR_Save>
   124c0:	e1d420b2 	ldrh	r2, [r4, #2]
   124c4:	e1a07000 	mov	r7, r0
   124c8:	e6efe072 	uxtb	lr, r2
   124cc:	e35e00ff 	cmp	lr, #255	; 0xff
   124d0:	e59d1008 	ldr	r1, [sp, #8]
   124d4:	0a000058 	beq	1263c <OSMutexPend+0x1d8>
   124d8:	e5943004 	ldr	r3, [r4, #4]
   124dc:	e1a0b422 	lsr	fp, r2, #8
   124e0:	e5d3202d 	ldrb	r2, [r3, #45]	; 0x2d
   124e4:	e6efc07b 	uxtb	ip, fp
   124e8:	e59f617c 	ldr	r6, [pc, #380]	; 1266c <OSMutexPend+0x208>
   124ec:	e152000c 	cmp	r2, ip
   124f0:	e5962000 	ldr	r2, [r6]
   124f4:	0a000028 	beq	1259c <OSMutexPend+0x138>
   124f8:	e5d2002d 	ldrb	r0, [r2, #45]	; 0x2d
   124fc:	e150000e 	cmp	r0, lr
   12500:	2a000025 	bcs	1259c <OSMutexPend+0x138>
   12504:	e5d3e02f 	ldrb	lr, [r3, #47]	; 0x2f
   12508:	e59f0160 	ldr	r0, [pc, #352]	; 12670 <OSMutexPend+0x20c>
   1250c:	e5d3a030 	ldrb	sl, [r3, #48]	; 0x30
   12510:	e7d0800e 	ldrb	r8, [r0, lr]
   12514:	e118000a 	tst	r8, sl
   12518:	0a00003a 	beq	12608 <OSMutexPend+0x1a4>
   1251c:	e1c8800a 	bic	r8, r8, sl
   12520:	e7c0800e 	strb	r8, [r0, lr]
   12524:	e3580000 	cmp	r8, #0
   12528:	e59f8144 	ldr	r8, [pc, #324]	; 12674 <OSMutexPend+0x210>
   1252c:	05d3a031 	ldrbeq	sl, [r3, #49]	; 0x31
   12530:	05d8e000 	ldrbeq	lr, [r8]
   12534:	e20bb007 	and	fp, fp, #7
   12538:	01cee00a 	biceq	lr, lr, sl
   1253c:	e59fa134 	ldr	sl, [pc, #308]	; 12678 <OSMutexPend+0x214>
   12540:	05c8e000 	strbeq	lr, [r8]
   12544:	e1a0e1ac 	lsr	lr, ip, #3
   12548:	e08a900b 	add	r9, sl, fp
   1254c:	e08aa00e 	add	sl, sl, lr
   12550:	e5d99100 	ldrb	r9, [r9, #256]	; 0x100
   12554:	e5daa100 	ldrb	sl, [sl, #256]	; 0x100
   12558:	e5c39030 	strb	r9, [r3, #48]	; 0x30
   1255c:	e5c3a031 	strb	sl, [r3, #49]	; 0x31
   12560:	e5c3b02e 	strb	fp, [r3, #46]	; 0x2e
   12564:	e5c3c02d 	strb	ip, [r3, #45]	; 0x2d
   12568:	e5c3e02f 	strb	lr, [r3, #47]	; 0x2f
   1256c:	e7d0b00e 	ldrb	fp, [r0, lr]
   12570:	e58db004 	str	fp, [sp, #4]
   12574:	e5d8b000 	ldrb	fp, [r8]
   12578:	e58db00c 	str	fp, [sp, #12]
   1257c:	e59db004 	ldr	fp, [sp, #4]
   12580:	e189900b 	orr	r9, r9, fp
   12584:	e59db00c 	ldr	fp, [sp, #12]
   12588:	e7c0900e 	strb	r9, [r0, lr]
   1258c:	e18aa00b 	orr	sl, sl, fp
   12590:	e5c8a000 	strb	sl, [r8]
   12594:	e59f00e0 	ldr	r0, [pc, #224]	; 1267c <OSMutexPend+0x218>
   12598:	e780310c 	str	r3, [r0, ip, lsl #2]
   1259c:	e5d2302c 	ldrb	r3, [r2, #44]	; 0x2c
   125a0:	e1c212ba 	strh	r1, [r2, #42]	; 0x2a
   125a4:	e3833010 	orr	r3, r3, #16
   125a8:	e5c2302c 	strb	r3, [r2, #44]	; 0x2c
   125ac:	e1a00004 	mov	r0, r4
   125b0:	ebfff9ce 	bl	10cf0 <OS_EventTaskWait>
   125b4:	e1a00007 	mov	r0, r7
   125b8:	ebfff814 	bl	10610 <OS_CPU_SR_Restore>
   125bc:	ebfffa05 	bl	10dd8 <OS_Sched>
   125c0:	ebfff80a 	bl	105f0 <OS_CPU_SR_Save>
   125c4:	e5962000 	ldr	r2, [r6]
   125c8:	e1a07000 	mov	r7, r0
   125cc:	e5d2302c 	ldrb	r3, [r2, #44]	; 0x2c
   125d0:	e2033010 	and	r3, r3, #16
   125d4:	e21360ff 	ands	r6, r3, #255	; 0xff
   125d8:	1a000003 	bne	125ec <OSMutexPend+0x188>
   125dc:	e582601c 	str	r6, [r2, #28]
   125e0:	ebfff80a 	bl	10610 <OS_CPU_SR_Restore>
   125e4:	e5c56000 	strb	r6, [r5]
   125e8:	eaffffb0 	b	124b0 <OSMutexPend+0x4c>
   125ec:	e1a00004 	mov	r0, r4
   125f0:	ebfff9db 	bl	10d64 <OS_EventTO>
   125f4:	e1a00007 	mov	r0, r7
   125f8:	ebfff804 	bl	10610 <OS_CPU_SR_Restore>
   125fc:	e3a0300a 	mov	r3, #10
   12600:	e5c53000 	strb	r3, [r5]
   12604:	eaffffa9 	b	124b0 <OSMutexPend+0x4c>
   12608:	e59fe068 	ldr	lr, [pc, #104]	; 12678 <OSMutexPend+0x214>
   1260c:	e20bb007 	and	fp, fp, #7
   12610:	e1a001ac 	lsr	r0, ip, #3
   12614:	e08e800b 	add	r8, lr, fp
   12618:	e08ee000 	add	lr, lr, r0
   1261c:	e5d88100 	ldrb	r8, [r8, #256]	; 0x100
   12620:	e5dee100 	ldrb	lr, [lr, #256]	; 0x100
   12624:	e5c3b02e 	strb	fp, [r3, #46]	; 0x2e
   12628:	e5c3c02d 	strb	ip, [r3, #45]	; 0x2d
   1262c:	e5c38030 	strb	r8, [r3, #48]	; 0x30
   12630:	e5c3e031 	strb	lr, [r3, #49]	; 0x31
   12634:	e5c3002f 	strb	r0, [r3, #47]	; 0x2f
   12638:	eaffffd5 	b	12594 <OSMutexPend+0x130>
   1263c:	e59f3028 	ldr	r3, [pc, #40]	; 1266c <OSMutexPend+0x208>
   12640:	e2022cff 	and	r2, r2, #65280	; 0xff00
   12644:	e5933000 	ldr	r3, [r3]
   12648:	e1c420b2 	strh	r2, [r4, #2]
   1264c:	e5d3102d 	ldrb	r1, [r3, #45]	; 0x2d
   12650:	e5843004 	str	r3, [r4, #4]
   12654:	e1822001 	orr	r2, r2, r1
   12658:	e1c420b2 	strh	r2, [r4, #2]
   1265c:	ebfff7eb 	bl	10610 <OS_CPU_SR_Restore>
   12660:	e5c56000 	strb	r6, [r5]
   12664:	eaffff91 	b	124b0 <OSMutexPend+0x4c>
   12668:	00016851 	andeq	r6, r1, r1, asr r8
   1266c:	00016854 	andeq	r6, r1, r4, asr r8
   12670:	00016844 	andeq	r6, r1, r4, asr #16
   12674:	00016840 	andeq	r6, r1, r0, asr #16
   12678:	00015ac4 	andeq	r5, r1, r4, asr #21
   1267c:	000174c8 	andeq	r7, r1, r8, asr #9

00012680 <OSMutexPost>:
   12680:	e92d47f0 	push	{r4, r5, r6, r7, r8, r9, sl, lr}
   12684:	e59f316c 	ldr	r3, [pc, #364]	; 127f8 <OSMutexPost+0x178>
   12688:	e1a04000 	mov	r4, r0
   1268c:	e5d33000 	ldrb	r3, [r3]
   12690:	e3530000 	cmp	r3, #0
   12694:	0a000001 	beq	126a0 <OSMutexPost+0x20>
   12698:	e3a00005 	mov	r0, #5
   1269c:	e8bd87f0 	pop	{r4, r5, r6, r7, r8, r9, sl, pc}
   126a0:	e3500000 	cmp	r0, #0
   126a4:	0a000004 	beq	126bc <OSMutexPost+0x3c>
   126a8:	e5d03000 	ldrb	r3, [r0]
   126ac:	e3530004 	cmp	r3, #4
   126b0:	0a000003 	beq	126c4 <OSMutexPost+0x44>
   126b4:	e3a00001 	mov	r0, #1
   126b8:	e8bd87f0 	pop	{r4, r5, r6, r7, r8, r9, sl, pc}
   126bc:	e3a00004 	mov	r0, #4
   126c0:	e8bd87f0 	pop	{r4, r5, r6, r7, r8, r9, sl, pc}
   126c4:	ebfff7c9 	bl	105f0 <OS_CPU_SR_Save>
   126c8:	e59f212c 	ldr	r2, [pc, #300]	; 127fc <OSMutexPost+0x17c>
   126cc:	e1d430b2 	ldrh	r3, [r4, #2]
   126d0:	e5922000 	ldr	r2, [r2]
   126d4:	e1a0c423 	lsr	ip, r3, #8
   126d8:	e5d2102d 	ldrb	r1, [r2, #45]	; 0x2d
   126dc:	e1a06000 	mov	r6, r0
   126e0:	e151000c 	cmp	r1, ip
   126e4:	e6efe073 	uxtb	lr, r3
   126e8:	0a000005 	beq	12704 <OSMutexPost+0x84>
   126ec:	e15e0001 	cmp	lr, r1
   126f0:	059f1108 	ldreq	r1, [pc, #264]	; 12800 <OSMutexPost+0x180>
   126f4:	0a000022 	beq	12784 <OSMutexPost+0x104>
   126f8:	ebfff7c4 	bl	10610 <OS_CPU_SR_Restore>
   126fc:	e3a00078 	mov	r0, #120	; 0x78
   12700:	e8bd87f0 	pop	{r4, r5, r6, r7, r8, r9, sl, pc}
   12704:	e5d2102f 	ldrb	r1, [r2, #47]	; 0x2f
   12708:	e59f50f4 	ldr	r5, [pc, #244]	; 12804 <OSMutexPost+0x184>
   1270c:	e5d27030 	ldrb	r7, [r2, #48]	; 0x30
   12710:	e7d50001 	ldrb	r0, [r5, r1]
   12714:	e2033007 	and	r3, r3, #7
   12718:	e1c00007 	bic	r0, r0, r7
   1271c:	e59f70e4 	ldr	r7, [pc, #228]	; 12808 <OSMutexPost+0x188>
   12720:	e7c50001 	strb	r0, [r5, r1]
   12724:	e3500000 	cmp	r0, #0
   12728:	05d20031 	ldrbeq	r0, [r2, #49]	; 0x31
   1272c:	05d71000 	ldrbeq	r1, [r7]
   12730:	e5c2302e 	strb	r3, [r2, #46]	; 0x2e
   12734:	01c11000 	biceq	r1, r1, r0
   12738:	05c71000 	strbeq	r1, [r7]
   1273c:	e59f10c8 	ldr	r1, [pc, #200]	; 1280c <OSMutexPost+0x18c>
   12740:	e1a001ae 	lsr	r0, lr, #3
   12744:	e0818003 	add	r8, r1, r3
   12748:	e0811000 	add	r1, r1, r0
   1274c:	e5d8a100 	ldrb	sl, [r8, #256]	; 0x100
   12750:	e5d18100 	ldrb	r8, [r1, #256]	; 0x100
   12754:	e5c2a030 	strb	sl, [r2, #48]	; 0x30
   12758:	e5c28031 	strb	r8, [r2, #49]	; 0x31
   1275c:	e5c2e02d 	strb	lr, [r2, #45]	; 0x2d
   12760:	e5c2002f 	strb	r0, [r2, #47]	; 0x2f
   12764:	e7d59000 	ldrb	r9, [r5, r0]
   12768:	e5d73000 	ldrb	r3, [r7]
   1276c:	e59f108c 	ldr	r1, [pc, #140]	; 12800 <OSMutexPost+0x180>
   12770:	e18aa009 	orr	sl, sl, r9
   12774:	e1888003 	orr	r8, r8, r3
   12778:	e7c5a000 	strb	sl, [r5, r0]
   1277c:	e5c78000 	strb	r8, [r7]
   12780:	e781210e 	str	r2, [r1, lr, lsl #2]
   12784:	e3a03001 	mov	r3, #1
   12788:	e781310c 	str	r3, [r1, ip, lsl #2]
   1278c:	e5d45001 	ldrb	r5, [r4, #1]
   12790:	e59f7068 	ldr	r7, [pc, #104]	; 12800 <OSMutexPost+0x180>
   12794:	e3550000 	cmp	r5, #0
   12798:	1a000007 	bne	127bc <OSMutexPost+0x13c>
   1279c:	e1d430b2 	ldrh	r3, [r4, #2]
   127a0:	e5845004 	str	r5, [r4, #4]
   127a4:	e38330ff 	orr	r3, r3, #255	; 0xff
   127a8:	e1a00006 	mov	r0, r6
   127ac:	e1c430b2 	strh	r3, [r4, #2]
   127b0:	ebfff796 	bl	10610 <OS_CPU_SR_Restore>
   127b4:	e1a00005 	mov	r0, r5
   127b8:	e8bd87f0 	pop	{r4, r5, r6, r7, r8, r9, sl, pc}
   127bc:	e3a01000 	mov	r1, #0
   127c0:	e1a00004 	mov	r0, r4
   127c4:	e3a02010 	mov	r2, #16
   127c8:	ebfff91c 	bl	10c40 <OS_EventTaskRdy>
   127cc:	e1d430b2 	ldrh	r3, [r4, #2]
   127d0:	e7972100 	ldr	r2, [r7, r0, lsl #2]
   127d4:	e3c330ff 	bic	r3, r3, #255	; 0xff
   127d8:	e1803003 	orr	r3, r0, r3
   127dc:	e5842004 	str	r2, [r4, #4]
   127e0:	e1c430b2 	strh	r3, [r4, #2]
   127e4:	e1a00006 	mov	r0, r6
   127e8:	ebfff788 	bl	10610 <OS_CPU_SR_Restore>
   127ec:	ebfff979 	bl	10dd8 <OS_Sched>
   127f0:	e3a00000 	mov	r0, #0
   127f4:	e8bd87f0 	pop	{r4, r5, r6, r7, r8, r9, sl, pc}
   127f8:	00016851 	andeq	r6, r1, r1, asr r8
   127fc:	00016854 	andeq	r6, r1, r4, asr r8
   12800:	000174c8 	andeq	r7, r1, r8, asr #9
   12804:	00016844 	andeq	r6, r1, r4, asr #16
   12808:	00016840 	andeq	r6, r1, r0, asr #16
   1280c:	00015ac4 	andeq	r5, r1, r4, asr #21

00012810 <OSMutexQuery>:
   12810:	e92d4030 	push	{r4, r5, lr}
   12814:	e59f30bc 	ldr	r3, [pc, #188]	; 128d8 <OSMutexQuery+0xc8>
   12818:	e1a04000 	mov	r4, r0
   1281c:	e5d35000 	ldrb	r5, [r3]
   12820:	e24dd00c 	sub	sp, sp, #12
   12824:	e3550000 	cmp	r5, #0
   12828:	13a00006 	movne	r0, #6
   1282c:	0a000001 	beq	12838 <OSMutexQuery+0x28>
   12830:	e28dd00c 	add	sp, sp, #12
   12834:	e8bd8030 	pop	{r4, r5, pc}
   12838:	e3540000 	cmp	r4, #0
   1283c:	03a00004 	moveq	r0, #4
   12840:	0afffffa 	beq	12830 <OSMutexQuery+0x20>
   12844:	e5d43000 	ldrb	r3, [r4]
   12848:	e3530004 	cmp	r3, #4
   1284c:	13a00001 	movne	r0, #1
   12850:	1afffff6 	bne	12830 <OSMutexQuery+0x20>
   12854:	e58d1004 	str	r1, [sp, #4]
   12858:	ebfff764 	bl	105f0 <OS_CPU_SR_Save>
   1285c:	e1d430b2 	ldrh	r3, [r4, #2]
   12860:	e59d1004 	ldr	r1, [sp, #4]
   12864:	e1a03423 	lsr	r3, r3, #8
   12868:	e5c1300b 	strb	r3, [r1, #11]
   1286c:	e5d43002 	ldrb	r3, [r4, #2]
   12870:	e35300ff 	cmp	r3, #255	; 0xff
   12874:	e5c1300a 	strb	r3, [r1, #10]
   12878:	03a03001 	moveq	r3, #1
   1287c:	05c13009 	strbeq	r3, [r1, #9]
   12880:	15c15009 	strbne	r5, [r1, #9]
   12884:	e5d43001 	ldrb	r3, [r4, #1]
   12888:	e5c13008 	strb	r3, [r1, #8]
   1288c:	e5d43008 	ldrb	r3, [r4, #8]
   12890:	e5c13000 	strb	r3, [r1]
   12894:	e5d43009 	ldrb	r3, [r4, #9]
   12898:	e5c13001 	strb	r3, [r1, #1]
   1289c:	e5d4300a 	ldrb	r3, [r4, #10]
   128a0:	e5c13002 	strb	r3, [r1, #2]
   128a4:	e5d4300b 	ldrb	r3, [r4, #11]
   128a8:	e5c13003 	strb	r3, [r1, #3]
   128ac:	e5d4300c 	ldrb	r3, [r4, #12]
   128b0:	e5c13004 	strb	r3, [r1, #4]
   128b4:	e5d4300d 	ldrb	r3, [r4, #13]
   128b8:	e5c13005 	strb	r3, [r1, #5]
   128bc:	e5d4300e 	ldrb	r3, [r4, #14]
   128c0:	e5c13006 	strb	r3, [r1, #6]
   128c4:	e5d4300f 	ldrb	r3, [r4, #15]
   128c8:	e5c13007 	strb	r3, [r1, #7]
   128cc:	ebfff74f 	bl	10610 <OS_CPU_SR_Restore>
   128d0:	e3a00000 	mov	r0, #0
   128d4:	eaffffd5 	b	12830 <OSMutexQuery+0x20>
   128d8:	00016851 	andeq	r6, r1, r1, asr r8

000128dc <OSQAccept>:
   128dc:	e92d4010 	push	{r4, lr}
   128e0:	e2504000 	subs	r4, r0, #0
   128e4:	0a00000a 	beq	12914 <OSQAccept+0x38>
   128e8:	e5d43000 	ldrb	r3, [r4]
   128ec:	e3530002 	cmp	r3, #2
   128f0:	13a04000 	movne	r4, #0
   128f4:	1a000006 	bne	12914 <OSQAccept+0x38>
   128f8:	ebfff73c 	bl	105f0 <OS_CPU_SR_Save>
   128fc:	e5943004 	ldr	r3, [r4, #4]
   12900:	e1d321b6 	ldrh	r2, [r3, #22]
   12904:	e3520000 	cmp	r2, #0
   12908:	01a04002 	moveq	r4, r2
   1290c:	1a000002 	bne	1291c <OSQAccept+0x40>
   12910:	ebfff73e 	bl	10610 <OS_CPU_SR_Restore>
   12914:	e1a00004 	mov	r0, r4
   12918:	e8bd8010 	pop	{r4, pc}
   1291c:	e5931010 	ldr	r1, [r3, #16]
   12920:	e593c008 	ldr	ip, [r3, #8]
   12924:	e4914004 	ldr	r4, [r1], #4
   12928:	e2422001 	sub	r2, r2, #1
   1292c:	e151000c 	cmp	r1, ip
   12930:	e1c321b6 	strh	r2, [r3, #22]
   12934:	05932004 	ldreq	r2, [r3, #4]
   12938:	e5831010 	str	r1, [r3, #16]
   1293c:	05832010 	streq	r2, [r3, #16]
   12940:	eafffff2 	b	12910 <OSQAccept+0x34>

00012944 <OSQCreate>:
   12944:	e92d45f8 	push	{r3, r4, r5, r6, r7, r8, sl, lr}
   12948:	e59f30d0 	ldr	r3, [pc, #208]	; 12a20 <OSQCreate+0xdc>
   1294c:	e1a07000 	mov	r7, r0
   12950:	e5d35000 	ldrb	r5, [r3]
   12954:	e1a0a001 	mov	sl, r1
   12958:	e3550000 	cmp	r5, #0
   1295c:	13a04000 	movne	r4, #0
   12960:	1a000023 	bne	129f4 <OSQCreate+0xb0>
   12964:	e59f80b8 	ldr	r8, [pc, #184]	; 12a24 <OSQCreate+0xe0>
   12968:	ebfff720 	bl	105f0 <OS_CPU_SR_Save>
   1296c:	e5984000 	ldr	r4, [r8]
   12970:	e3540000 	cmp	r4, #0
   12974:	0a000020 	beq	129fc <OSQCreate+0xb8>
   12978:	e5943004 	ldr	r3, [r4, #4]
   1297c:	e5883000 	str	r3, [r8]
   12980:	ebfff722 	bl	10610 <OS_CPU_SR_Restore>
   12984:	ebfff719 	bl	105f0 <OS_CPU_SR_Save>
   12988:	e59f3098 	ldr	r3, [pc, #152]	; 12a28 <OSQCreate+0xe4>
   1298c:	e5936000 	ldr	r6, [r3]
   12990:	e3560000 	cmp	r6, #0
   12994:	0a00001b 	beq	12a08 <OSQCreate+0xc4>
   12998:	e5962000 	ldr	r2, [r6]
   1299c:	e5832000 	str	r2, [r3]
   129a0:	ebfff71a 	bl	10610 <OS_CPU_SR_Restore>
   129a4:	e087210a 	add	r2, r7, sl, lsl #2
   129a8:	e3a03002 	mov	r3, #2
   129ac:	e5867004 	str	r7, [r6, #4]
   129b0:	e586700c 	str	r7, [r6, #12]
   129b4:	e5867010 	str	r7, [r6, #16]
   129b8:	e5862008 	str	r2, [r6, #8]
   129bc:	e1c6a1b4 	strh	sl, [r6, #20]
   129c0:	e1c651b6 	strh	r5, [r6, #22]
   129c4:	e1c450b2 	strh	r5, [r4, #2]
   129c8:	e5846004 	str	r6, [r4, #4]
   129cc:	e5c45001 	strb	r5, [r4, #1]
   129d0:	e5c45008 	strb	r5, [r4, #8]
   129d4:	e5c45009 	strb	r5, [r4, #9]
   129d8:	e5c4500a 	strb	r5, [r4, #10]
   129dc:	e5c4500b 	strb	r5, [r4, #11]
   129e0:	e5c4500c 	strb	r5, [r4, #12]
   129e4:	e5c4500d 	strb	r5, [r4, #13]
   129e8:	e5c4500e 	strb	r5, [r4, #14]
   129ec:	e5c4500f 	strb	r5, [r4, #15]
   129f0:	e5c43000 	strb	r3, [r4]
   129f4:	e1a00004 	mov	r0, r4
   129f8:	e8bd85f8 	pop	{r3, r4, r5, r6, r7, r8, sl, pc}
   129fc:	ebfff703 	bl	10610 <OS_CPU_SR_Restore>
   12a00:	e1a00004 	mov	r0, r4
   12a04:	e8bd85f8 	pop	{r3, r4, r5, r6, r7, r8, sl, pc}
   12a08:	e5983000 	ldr	r3, [r8]
   12a0c:	e5884000 	str	r4, [r8]
   12a10:	e5843004 	str	r3, [r4, #4]
   12a14:	ebfff6fd 	bl	10610 <OS_CPU_SR_Restore>
   12a18:	e1a04006 	mov	r4, r6
   12a1c:	eafffff4 	b	129f4 <OSQCreate+0xb0>
   12a20:	00016851 	andeq	r6, r1, r1, asr r8
   12a24:	0001684c 	andeq	r6, r1, ip, asr #16
   12a28:	0001683c 	andeq	r6, r1, ip, lsr r8

00012a2c <OSQDel>:
   12a2c:	e92d40f0 	push	{r4, r5, r6, r7, lr}
   12a30:	e59f314c 	ldr	r3, [pc, #332]	; 12b84 <OSQDel+0x158>
   12a34:	e24dd00c 	sub	sp, sp, #12
   12a38:	e5d33000 	ldrb	r3, [r3]
   12a3c:	e1a04000 	mov	r4, r0
   12a40:	e3530000 	cmp	r3, #0
   12a44:	13e03073 	mvnne	r3, #115	; 0x73
   12a48:	e1a05002 	mov	r5, r2
   12a4c:	15c23000 	strbne	r3, [r2]
   12a50:	1a000008 	bne	12a78 <OSQDel+0x4c>
   12a54:	e3500000 	cmp	r0, #0
   12a58:	03a03004 	moveq	r3, #4
   12a5c:	05c23000 	strbeq	r3, [r2]
   12a60:	0a000004 	beq	12a78 <OSQDel+0x4c>
   12a64:	e5d03000 	ldrb	r3, [r0]
   12a68:	e3530002 	cmp	r3, #2
   12a6c:	0a000004 	beq	12a84 <OSQDel+0x58>
   12a70:	e3a03001 	mov	r3, #1
   12a74:	e5c23000 	strb	r3, [r2]
   12a78:	e1a00004 	mov	r0, r4
   12a7c:	e28dd00c 	add	sp, sp, #12
   12a80:	e8bd80f0 	pop	{r4, r5, r6, r7, pc}
   12a84:	e58d1004 	str	r1, [sp, #4]
   12a88:	ebfff6d8 	bl	105f0 <OS_CPU_SR_Save>
   12a8c:	e5d46001 	ldrb	r6, [r4, #1]
   12a90:	e59d1004 	ldr	r1, [sp, #4]
   12a94:	e2966000 	adds	r6, r6, #0
   12a98:	13a06001 	movne	r6, #1
   12a9c:	e3510000 	cmp	r1, #0
   12aa0:	e1a07000 	mov	r7, r0
   12aa4:	1a000005 	bne	12ac0 <OSQDel+0x94>
   12aa8:	e3560000 	cmp	r6, #0
   12aac:	0a000024 	beq	12b44 <OSQDel+0x118>
   12ab0:	ebfff6d6 	bl	10610 <OS_CPU_SR_Restore>
   12ab4:	e3a03008 	mov	r3, #8
   12ab8:	e5c53000 	strb	r3, [r5]
   12abc:	eaffffed 	b	12a78 <OSQDel+0x4c>
   12ac0:	e3510001 	cmp	r1, #1
   12ac4:	0a000003 	beq	12ad8 <OSQDel+0xac>
   12ac8:	ebfff6d0 	bl	10610 <OS_CPU_SR_Restore>
   12acc:	e3a03007 	mov	r3, #7
   12ad0:	e5c53000 	strb	r3, [r5]
   12ad4:	eaffffe7 	b	12a78 <OSQDel+0x4c>
   12ad8:	e3560000 	cmp	r6, #0
   12adc:	0a000006 	beq	12afc <OSQDel+0xd0>
   12ae0:	e1a00004 	mov	r0, r4
   12ae4:	e3a01000 	mov	r1, #0
   12ae8:	e3a02004 	mov	r2, #4
   12aec:	ebfff853 	bl	10c40 <OS_EventTaskRdy>
   12af0:	e5d43001 	ldrb	r3, [r4, #1]
   12af4:	e3530000 	cmp	r3, #0
   12af8:	1afffff8 	bne	12ae0 <OSQDel+0xb4>
   12afc:	e59f2084 	ldr	r2, [pc, #132]	; 12b88 <OSQDel+0x15c>
   12b00:	e5941004 	ldr	r1, [r4, #4]
   12b04:	e592c000 	ldr	ip, [r2]
   12b08:	e59f307c 	ldr	r3, [pc, #124]	; 12b8c <OSQDel+0x160>
   12b0c:	e3a00000 	mov	r0, #0
   12b10:	e581c000 	str	ip, [r1]
   12b14:	e5821000 	str	r1, [r2]
   12b18:	e5c40000 	strb	r0, [r4]
   12b1c:	e5932000 	ldr	r2, [r3]
   12b20:	e1a00007 	mov	r0, r7
   12b24:	e5842004 	str	r2, [r4, #4]
   12b28:	e5834000 	str	r4, [r3]
   12b2c:	ebfff6b7 	bl	10610 <OS_CPU_SR_Restore>
   12b30:	e3560001 	cmp	r6, #1
   12b34:	0a000010 	beq	12b7c <OSQDel+0x150>
   12b38:	e3a04000 	mov	r4, #0
   12b3c:	e5c54000 	strb	r4, [r5]
   12b40:	eaffffcc 	b	12a78 <OSQDel+0x4c>
   12b44:	e59f203c 	ldr	r2, [pc, #60]	; 12b88 <OSQDel+0x15c>
   12b48:	e5941004 	ldr	r1, [r4, #4]
   12b4c:	e592c000 	ldr	ip, [r2]
   12b50:	e59f3034 	ldr	r3, [pc, #52]	; 12b8c <OSQDel+0x160>
   12b54:	e581c000 	str	ip, [r1]
   12b58:	e5821000 	str	r1, [r2]
   12b5c:	e5c46000 	strb	r6, [r4]
   12b60:	e5932000 	ldr	r2, [r3]
   12b64:	e5834000 	str	r4, [r3]
   12b68:	e5842004 	str	r2, [r4, #4]
   12b6c:	ebfff6a7 	bl	10610 <OS_CPU_SR_Restore>
   12b70:	e1a04006 	mov	r4, r6
   12b74:	e5c56000 	strb	r6, [r5]
   12b78:	eaffffbe 	b	12a78 <OSQDel+0x4c>
   12b7c:	ebfff895 	bl	10dd8 <OS_Sched>
   12b80:	eaffffec 	b	12b38 <OSQDel+0x10c>
   12b84:	00016851 	andeq	r6, r1, r1, asr r8
   12b88:	0001683c 	andeq	r6, r1, ip, lsr r8
   12b8c:	0001684c 	andeq	r6, r1, ip, asr #16

00012b90 <OSQFlush>:
   12b90:	e92d4010 	push	{r4, lr}
   12b94:	e2504000 	subs	r4, r0, #0
   12b98:	0a000004 	beq	12bb0 <OSQFlush+0x20>
   12b9c:	e5d43000 	ldrb	r3, [r4]
   12ba0:	e3530002 	cmp	r3, #2
   12ba4:	0a000003 	beq	12bb8 <OSQFlush+0x28>
   12ba8:	e3a00001 	mov	r0, #1
   12bac:	e8bd8010 	pop	{r4, pc}
   12bb0:	e3a00004 	mov	r0, #4
   12bb4:	e8bd8010 	pop	{r4, pc}
   12bb8:	ebfff68c 	bl	105f0 <OS_CPU_SR_Save>
   12bbc:	e5943004 	ldr	r3, [r4, #4]
   12bc0:	e3a04000 	mov	r4, #0
   12bc4:	e5932004 	ldr	r2, [r3, #4]
   12bc8:	e1c341b6 	strh	r4, [r3, #22]
   12bcc:	e583200c 	str	r2, [r3, #12]
   12bd0:	e5832010 	str	r2, [r3, #16]
   12bd4:	ebfff68d 	bl	10610 <OS_CPU_SR_Restore>
   12bd8:	e1a00004 	mov	r0, r4
   12bdc:	e8bd8010 	pop	{r4, pc}

00012be0 <OSQPend>:
   12be0:	e92d45f8 	push	{r3, r4, r5, r6, r7, r8, sl, lr}
   12be4:	e59f3120 	ldr	r3, [pc, #288]	; 12d0c <OSQPend+0x12c>
   12be8:	e1a04000 	mov	r4, r0
   12bec:	e5d30000 	ldrb	r0, [r3]
   12bf0:	e1a05001 	mov	r5, r1
   12bf4:	e3500000 	cmp	r0, #0
   12bf8:	13a03002 	movne	r3, #2
   12bfc:	e1a06002 	mov	r6, r2
   12c00:	15c23000 	strbne	r3, [r2]
   12c04:	13a05000 	movne	r5, #0
   12c08:	1a000019 	bne	12c74 <OSQPend+0x94>
   12c0c:	e3540000 	cmp	r4, #0
   12c10:	03a03004 	moveq	r3, #4
   12c14:	01a05004 	moveq	r5, r4
   12c18:	05c23000 	strbeq	r3, [r2]
   12c1c:	0a000014 	beq	12c74 <OSQPend+0x94>
   12c20:	e5d43000 	ldrb	r3, [r4]
   12c24:	e3530002 	cmp	r3, #2
   12c28:	1a000013 	bne	12c7c <OSQPend+0x9c>
   12c2c:	ebfff66f 	bl	105f0 <OS_CPU_SR_Save>
   12c30:	e5943004 	ldr	r3, [r4, #4]
   12c34:	e1a08000 	mov	r8, r0
   12c38:	e1d371b6 	ldrh	r7, [r3, #22]
   12c3c:	e3570000 	cmp	r7, #0
   12c40:	0a000012 	beq	12c90 <OSQPend+0xb0>
   12c44:	e5932010 	ldr	r2, [r3, #16]
   12c48:	e5931008 	ldr	r1, [r3, #8]
   12c4c:	e4925004 	ldr	r5, [r2], #4
   12c50:	e2477001 	sub	r7, r7, #1
   12c54:	e1520001 	cmp	r2, r1
   12c58:	e5832010 	str	r2, [r3, #16]
   12c5c:	05932004 	ldreq	r2, [r3, #4]
   12c60:	e1c371b6 	strh	r7, [r3, #22]
   12c64:	05832010 	streq	r2, [r3, #16]
   12c68:	ebfff668 	bl	10610 <OS_CPU_SR_Restore>
   12c6c:	e3a03000 	mov	r3, #0
   12c70:	e5c63000 	strb	r3, [r6]
   12c74:	e1a00005 	mov	r0, r5
   12c78:	e8bd85f8 	pop	{r3, r4, r5, r6, r7, r8, sl, pc}
   12c7c:	e3a03001 	mov	r3, #1
   12c80:	e1a05000 	mov	r5, r0
   12c84:	e5c23000 	strb	r3, [r2]
   12c88:	e1a00005 	mov	r0, r5
   12c8c:	e8bd85f8 	pop	{r3, r4, r5, r6, r7, r8, sl, pc}
   12c90:	e59fa078 	ldr	sl, [pc, #120]	; 12d10 <OSQPend+0x130>
   12c94:	e1a00004 	mov	r0, r4
   12c98:	e59a3000 	ldr	r3, [sl]
   12c9c:	e5d3202c 	ldrb	r2, [r3, #44]	; 0x2c
   12ca0:	e1c352ba 	strh	r5, [r3, #42]	; 0x2a
   12ca4:	e3822004 	orr	r2, r2, #4
   12ca8:	e5c3202c 	strb	r2, [r3, #44]	; 0x2c
   12cac:	ebfff80f 	bl	10cf0 <OS_EventTaskWait>
   12cb0:	e1a00008 	mov	r0, r8
   12cb4:	ebfff655 	bl	10610 <OS_CPU_SR_Restore>
   12cb8:	ebfff846 	bl	10dd8 <OS_Sched>
   12cbc:	ebfff64b 	bl	105f0 <OS_CPU_SR_Save>
   12cc0:	e59a3000 	ldr	r3, [sl]
   12cc4:	e1a08000 	mov	r8, r0
   12cc8:	e5935020 	ldr	r5, [r3, #32]
   12ccc:	e3550000 	cmp	r5, #0
   12cd0:	0a000006 	beq	12cf0 <OSQPend+0x110>
   12cd4:	e5837020 	str	r7, [r3, #32]
   12cd8:	e5c3702c 	strb	r7, [r3, #44]	; 0x2c
   12cdc:	e583701c 	str	r7, [r3, #28]
   12ce0:	ebfff64a 	bl	10610 <OS_CPU_SR_Restore>
   12ce4:	e5c67000 	strb	r7, [r6]
   12ce8:	e1a00005 	mov	r0, r5
   12cec:	e8bd85f8 	pop	{r3, r4, r5, r6, r7, r8, sl, pc}
   12cf0:	e1a00004 	mov	r0, r4
   12cf4:	ebfff81a 	bl	10d64 <OS_EventTO>
   12cf8:	e1a00008 	mov	r0, r8
   12cfc:	ebfff643 	bl	10610 <OS_CPU_SR_Restore>
   12d00:	e3a0300a 	mov	r3, #10
   12d04:	e5c63000 	strb	r3, [r6]
   12d08:	eaffffd9 	b	12c74 <OSQPend+0x94>
   12d0c:	00016851 	andeq	r6, r1, r1, asr r8
   12d10:	00016854 	andeq	r6, r1, r4, asr r8

00012d14 <OSQPost>:
   12d14:	e92d4030 	push	{r4, r5, lr}
   12d18:	e2504000 	subs	r4, r0, #0
   12d1c:	e24dd00c 	sub	sp, sp, #12
   12d20:	03a00004 	moveq	r0, #4
   12d24:	0a000006 	beq	12d44 <OSQPost+0x30>
   12d28:	e3510000 	cmp	r1, #0
   12d2c:	03a00003 	moveq	r0, #3
   12d30:	0a000003 	beq	12d44 <OSQPost+0x30>
   12d34:	e5d43000 	ldrb	r3, [r4]
   12d38:	e3530002 	cmp	r3, #2
   12d3c:	13a00001 	movne	r0, #1
   12d40:	0a000001 	beq	12d4c <OSQPost+0x38>
   12d44:	e28dd00c 	add	sp, sp, #12
   12d48:	e8bd8030 	pop	{r4, r5, pc}
   12d4c:	e58d1004 	str	r1, [sp, #4]
   12d50:	ebfff626 	bl	105f0 <OS_CPU_SR_Save>
   12d54:	e5d43001 	ldrb	r3, [r4, #1]
   12d58:	e1a05000 	mov	r5, r0
   12d5c:	e3530000 	cmp	r3, #0
   12d60:	e59d1004 	ldr	r1, [sp, #4]
   12d64:	1a000013 	bne	12db8 <OSQPost+0xa4>
   12d68:	e5943004 	ldr	r3, [r4, #4]
   12d6c:	e1d3c1b6 	ldrh	ip, [r3, #22]
   12d70:	e1d321b4 	ldrh	r2, [r3, #20]
   12d74:	e152000c 	cmp	r2, ip
   12d78:	9a00000b 	bls	12dac <OSQPost+0x98>
   12d7c:	e593200c 	ldr	r2, [r3, #12]
   12d80:	e28cc001 	add	ip, ip, #1
   12d84:	e4821004 	str	r1, [r2], #4
   12d88:	e5931008 	ldr	r1, [r3, #8]
   12d8c:	e583200c 	str	r2, [r3, #12]
   12d90:	e1520001 	cmp	r2, r1
   12d94:	05932004 	ldreq	r2, [r3, #4]
   12d98:	e1c3c1b6 	strh	ip, [r3, #22]
   12d9c:	0583200c 	streq	r2, [r3, #12]
   12da0:	ebfff61a 	bl	10610 <OS_CPU_SR_Restore>
   12da4:	e3a00000 	mov	r0, #0
   12da8:	eaffffe5 	b	12d44 <OSQPost+0x30>
   12dac:	ebfff617 	bl	10610 <OS_CPU_SR_Restore>
   12db0:	e3a0001e 	mov	r0, #30
   12db4:	eaffffe2 	b	12d44 <OSQPost+0x30>
   12db8:	e3a02004 	mov	r2, #4
   12dbc:	e1a00004 	mov	r0, r4
   12dc0:	ebfff79e 	bl	10c40 <OS_EventTaskRdy>
   12dc4:	e1a00005 	mov	r0, r5
   12dc8:	ebfff610 	bl	10610 <OS_CPU_SR_Restore>
   12dcc:	ebfff801 	bl	10dd8 <OS_Sched>
   12dd0:	e3a00000 	mov	r0, #0
   12dd4:	eaffffda 	b	12d44 <OSQPost+0x30>

00012dd8 <OSQPostFront>:
   12dd8:	e92d4030 	push	{r4, r5, lr}
   12ddc:	e2504000 	subs	r4, r0, #0
   12de0:	e24dd00c 	sub	sp, sp, #12
   12de4:	03a00004 	moveq	r0, #4
   12de8:	0a000006 	beq	12e08 <OSQPostFront+0x30>
   12dec:	e3510000 	cmp	r1, #0
   12df0:	03a00003 	moveq	r0, #3
   12df4:	0a000003 	beq	12e08 <OSQPostFront+0x30>
   12df8:	e5d43000 	ldrb	r3, [r4]
   12dfc:	e3530002 	cmp	r3, #2
   12e00:	13a00001 	movne	r0, #1
   12e04:	0a000001 	beq	12e10 <OSQPostFront+0x38>
   12e08:	e28dd00c 	add	sp, sp, #12
   12e0c:	e8bd8030 	pop	{r4, r5, pc}
   12e10:	e58d1004 	str	r1, [sp, #4]
   12e14:	ebfff5f5 	bl	105f0 <OS_CPU_SR_Save>
   12e18:	e5d43001 	ldrb	r3, [r4, #1]
   12e1c:	e1a05000 	mov	r5, r0
   12e20:	e3530000 	cmp	r3, #0
   12e24:	e59d1004 	ldr	r1, [sp, #4]
   12e28:	1a000014 	bne	12e80 <OSQPostFront+0xa8>
   12e2c:	e5943004 	ldr	r3, [r4, #4]
   12e30:	e1d321b6 	ldrh	r2, [r3, #22]
   12e34:	e1d3c1b4 	ldrh	ip, [r3, #20]
   12e38:	e15c0002 	cmp	ip, r2
   12e3c:	9a00000c 	bls	12e74 <OSQPostFront+0x9c>
   12e40:	e593c010 	ldr	ip, [r3, #16]
   12e44:	e5930004 	ldr	r0, [r3, #4]
   12e48:	e2822001 	add	r2, r2, #1
   12e4c:	e15c0000 	cmp	ip, r0
   12e50:	0593c008 	ldreq	ip, [r3, #8]
   12e54:	e1a00005 	mov	r0, r5
   12e58:	e24ce004 	sub	lr, ip, #4
   12e5c:	e583e010 	str	lr, [r3, #16]
   12e60:	e50c1004 	str	r1, [ip, #-4]
   12e64:	e1c321b6 	strh	r2, [r3, #22]
   12e68:	ebfff5e8 	bl	10610 <OS_CPU_SR_Restore>
   12e6c:	e3a00000 	mov	r0, #0
   12e70:	eaffffe4 	b	12e08 <OSQPostFront+0x30>
   12e74:	ebfff5e5 	bl	10610 <OS_CPU_SR_Restore>
   12e78:	e3a0001e 	mov	r0, #30
   12e7c:	eaffffe1 	b	12e08 <OSQPostFront+0x30>
   12e80:	e3a02004 	mov	r2, #4
   12e84:	e1a00004 	mov	r0, r4
   12e88:	ebfff76c 	bl	10c40 <OS_EventTaskRdy>
   12e8c:	e1a00005 	mov	r0, r5
   12e90:	ebfff5de 	bl	10610 <OS_CPU_SR_Restore>
   12e94:	ebfff7cf 	bl	10dd8 <OS_Sched>
   12e98:	e3a00000 	mov	r0, #0
   12e9c:	eaffffd9 	b	12e08 <OSQPostFront+0x30>

00012ea0 <OSQPostOpt>:
   12ea0:	e92d4070 	push	{r4, r5, r6, lr}
   12ea4:	e2504000 	subs	r4, r0, #0
   12ea8:	e24dd008 	sub	sp, sp, #8
   12eac:	e1a05001 	mov	r5, r1
   12eb0:	03a00004 	moveq	r0, #4
   12eb4:	0a000006 	beq	12ed4 <OSQPostOpt+0x34>
   12eb8:	e3510000 	cmp	r1, #0
   12ebc:	03a00003 	moveq	r0, #3
   12ec0:	0a000003 	beq	12ed4 <OSQPostOpt+0x34>
   12ec4:	e5d43000 	ldrb	r3, [r4]
   12ec8:	e3530002 	cmp	r3, #2
   12ecc:	13a00001 	movne	r0, #1
   12ed0:	0a000001 	beq	12edc <OSQPostOpt+0x3c>
   12ed4:	e28dd008 	add	sp, sp, #8
   12ed8:	e8bd8070 	pop	{r4, r5, r6, pc}
   12edc:	e58d2004 	str	r2, [sp, #4]
   12ee0:	ebfff5c2 	bl	105f0 <OS_CPU_SR_Save>
   12ee4:	e5d43001 	ldrb	r3, [r4, #1]
   12ee8:	e1a06000 	mov	r6, r0
   12eec:	e3530000 	cmp	r3, #0
   12ef0:	e59d2004 	ldr	r2, [sp, #4]
   12ef4:	0a00000d 	beq	12f30 <OSQPostOpt+0x90>
   12ef8:	e3120001 	tst	r2, #1
   12efc:	0a000022 	beq	12f8c <OSQPostOpt+0xec>
   12f00:	e1a00004 	mov	r0, r4
   12f04:	e1a01005 	mov	r1, r5
   12f08:	e3a02004 	mov	r2, #4
   12f0c:	ebfff74b 	bl	10c40 <OS_EventTaskRdy>
   12f10:	e5d43001 	ldrb	r3, [r4, #1]
   12f14:	e3530000 	cmp	r3, #0
   12f18:	1afffff8 	bne	12f00 <OSQPostOpt+0x60>
   12f1c:	e1a00006 	mov	r0, r6
   12f20:	ebfff5ba 	bl	10610 <OS_CPU_SR_Restore>
   12f24:	ebfff7ab 	bl	10dd8 <OS_Sched>
   12f28:	e3a00000 	mov	r0, #0
   12f2c:	eaffffe8 	b	12ed4 <OSQPostOpt+0x34>
   12f30:	e5943004 	ldr	r3, [r4, #4]
   12f34:	e1d311b6 	ldrh	r1, [r3, #22]
   12f38:	e1d3c1b4 	ldrh	ip, [r3, #20]
   12f3c:	e15c0001 	cmp	ip, r1
   12f40:	9a00000e 	bls	12f80 <OSQPostOpt+0xe0>
   12f44:	e3120002 	tst	r2, #2
   12f48:	0a000014 	beq	12fa0 <OSQPostOpt+0x100>
   12f4c:	e5932010 	ldr	r2, [r3, #16]
   12f50:	e5930004 	ldr	r0, [r3, #4]
   12f54:	e1520000 	cmp	r2, r0
   12f58:	05932008 	ldreq	r2, [r3, #8]
   12f5c:	e2420004 	sub	r0, r2, #4
   12f60:	e5830010 	str	r0, [r3, #16]
   12f64:	e5025004 	str	r5, [r2, #-4]
   12f68:	e2811001 	add	r1, r1, #1
   12f6c:	e1c311b6 	strh	r1, [r3, #22]
   12f70:	e1a00006 	mov	r0, r6
   12f74:	ebfff5a5 	bl	10610 <OS_CPU_SR_Restore>
   12f78:	e3a00000 	mov	r0, #0
   12f7c:	eaffffd4 	b	12ed4 <OSQPostOpt+0x34>
   12f80:	ebfff5a2 	bl	10610 <OS_CPU_SR_Restore>
   12f84:	e3a0001e 	mov	r0, #30
   12f88:	eaffffd1 	b	12ed4 <OSQPostOpt+0x34>
   12f8c:	e1a00004 	mov	r0, r4
   12f90:	e1a01005 	mov	r1, r5
   12f94:	e3a02004 	mov	r2, #4
   12f98:	ebfff728 	bl	10c40 <OS_EventTaskRdy>
   12f9c:	eaffffde 	b	12f1c <OSQPostOpt+0x7c>
   12fa0:	e593200c 	ldr	r2, [r3, #12]
   12fa4:	e4825004 	str	r5, [r2], #4
   12fa8:	e5930008 	ldr	r0, [r3, #8]
   12fac:	e583200c 	str	r2, [r3, #12]
   12fb0:	e1520000 	cmp	r2, r0
   12fb4:	05932004 	ldreq	r2, [r3, #4]
   12fb8:	0583200c 	streq	r2, [r3, #12]
   12fbc:	eaffffe9 	b	12f68 <OSQPostOpt+0xc8>

00012fc0 <OSQQuery>:
   12fc0:	e92d4010 	push	{r4, lr}
   12fc4:	e2504000 	subs	r4, r0, #0
   12fc8:	e24dd008 	sub	sp, sp, #8
   12fcc:	03a00004 	moveq	r0, #4
   12fd0:	0a000003 	beq	12fe4 <OSQQuery+0x24>
   12fd4:	e5d43000 	ldrb	r3, [r4]
   12fd8:	e3530002 	cmp	r3, #2
   12fdc:	13a00001 	movne	r0, #1
   12fe0:	0a000001 	beq	12fec <OSQQuery+0x2c>
   12fe4:	e28dd008 	add	sp, sp, #8
   12fe8:	e8bd8010 	pop	{r4, pc}
   12fec:	e58d1004 	str	r1, [sp, #4]
   12ff0:	ebfff57e 	bl	105f0 <OS_CPU_SR_Save>
   12ff4:	e5d43001 	ldrb	r3, [r4, #1]
   12ff8:	e59d1004 	ldr	r1, [sp, #4]
   12ffc:	e5c13010 	strb	r3, [r1, #16]
   13000:	e5d43008 	ldrb	r3, [r4, #8]
   13004:	e5c13008 	strb	r3, [r1, #8]
   13008:	e5d43009 	ldrb	r3, [r4, #9]
   1300c:	e5c13009 	strb	r3, [r1, #9]
   13010:	e5d4300a 	ldrb	r3, [r4, #10]
   13014:	e5c1300a 	strb	r3, [r1, #10]
   13018:	e5d4300b 	ldrb	r3, [r4, #11]
   1301c:	e5c1300b 	strb	r3, [r1, #11]
   13020:	e5d4300c 	ldrb	r3, [r4, #12]
   13024:	e5c1300c 	strb	r3, [r1, #12]
   13028:	e5d4300d 	ldrb	r3, [r4, #13]
   1302c:	e5c1300d 	strb	r3, [r1, #13]
   13030:	e5d4300e 	ldrb	r3, [r4, #14]
   13034:	e5c1300e 	strb	r3, [r1, #14]
   13038:	e5d4300f 	ldrb	r3, [r4, #15]
   1303c:	e5c1300f 	strb	r3, [r1, #15]
   13040:	e5942004 	ldr	r2, [r4, #4]
   13044:	e1d231b6 	ldrh	r3, [r2, #22]
   13048:	e3530000 	cmp	r3, #0
   1304c:	1592c010 	ldrne	ip, [r2, #16]
   13050:	e1d221b4 	ldrh	r2, [r2, #20]
   13054:	159cc000 	ldrne	ip, [ip]
   13058:	05813000 	streq	r3, [r1]
   1305c:	1581c000 	strne	ip, [r1]
   13060:	e1c130b4 	strh	r3, [r1, #4]
   13064:	e1c120b6 	strh	r2, [r1, #6]
   13068:	ebfff568 	bl	10610 <OS_CPU_SR_Restore>
   1306c:	e3a00000 	mov	r0, #0
   13070:	eaffffdb 	b	12fe4 <OSQQuery+0x24>

00013074 <OS_QInit>:
   13074:	e59f3038 	ldr	r3, [pc, #56]	; 130b4 <OS_QInit+0x40>
   13078:	e92d0030 	push	{r4, r5}
   1307c:	e1a02003 	mov	r2, r3
   13080:	e59f1030 	ldr	r1, [pc, #48]	; 130b8 <OS_QInit+0x44>
   13084:	e2835018 	add	r5, r3, #24
   13088:	e2834048 	add	r4, r3, #72	; 0x48
   1308c:	e283c060 	add	ip, r3, #96	; 0x60
   13090:	e3a00000 	mov	r0, #0
   13094:	e4825030 	str	r5, [r2], #48	; 0x30
   13098:	e5834030 	str	r4, [r3, #48]	; 0x30
   1309c:	e583c048 	str	ip, [r3, #72]	; 0x48
   130a0:	e5830060 	str	r0, [r3, #96]	; 0x60
   130a4:	e5813000 	str	r3, [r1]
   130a8:	e5832018 	str	r2, [r3, #24]
   130ac:	e8bd0030 	pop	{r4, r5}
   130b0:	e12fff1e 	bx	lr
   130b4:	000167c0 	andeq	r6, r1, r0, asr #15
   130b8:	0001683c 	andeq	r6, r1, ip, lsr r8

000130bc <OSSemAccept>:
   130bc:	e92d4038 	push	{r3, r4, r5, lr}
   130c0:	e2504000 	subs	r4, r0, #0
   130c4:	0a00000d 	beq	13100 <OSSemAccept+0x44>
   130c8:	e5d43000 	ldrb	r3, [r4]
   130cc:	e3530003 	cmp	r3, #3
   130d0:	13a05000 	movne	r5, #0
   130d4:	0a000001 	beq	130e0 <OSSemAccept+0x24>
   130d8:	e1a00005 	mov	r0, r5
   130dc:	e8bd8038 	pop	{r3, r4, r5, pc}
   130e0:	ebfff542 	bl	105f0 <OS_CPU_SR_Save>
   130e4:	e1d450b2 	ldrh	r5, [r4, #2]
   130e8:	e3550000 	cmp	r5, #0
   130ec:	12453001 	subne	r3, r5, #1
   130f0:	11c430b2 	strhne	r3, [r4, #2]
   130f4:	ebfff545 	bl	10610 <OS_CPU_SR_Restore>
   130f8:	e1a00005 	mov	r0, r5
   130fc:	e8bd8038 	pop	{r3, r4, r5, pc}
   13100:	e1a05004 	mov	r5, r4
   13104:	e1a00005 	mov	r0, r5
   13108:	e8bd8038 	pop	{r3, r4, r5, pc}

0001310c <OSSemCreate>:
   1310c:	e92d4070 	push	{r4, r5, r6, lr}
   13110:	e59f3078 	ldr	r3, [pc, #120]	; 13190 <OSSemCreate+0x84>
   13114:	e1a06000 	mov	r6, r0
   13118:	e5d35000 	ldrb	r5, [r3]
   1311c:	e3550000 	cmp	r5, #0
   13120:	13a04000 	movne	r4, #0
   13124:	1a000014 	bne	1317c <OSSemCreate+0x70>
   13128:	ebfff530 	bl	105f0 <OS_CPU_SR_Save>
   1312c:	e59f3060 	ldr	r3, [pc, #96]	; 13194 <OSSemCreate+0x88>
   13130:	e5934000 	ldr	r4, [r3]
   13134:	e3540000 	cmp	r4, #0
   13138:	0a000011 	beq	13184 <OSSemCreate+0x78>
   1313c:	e5942004 	ldr	r2, [r4, #4]
   13140:	e5832000 	str	r2, [r3]
   13144:	ebfff531 	bl	10610 <OS_CPU_SR_Restore>
   13148:	e3a03003 	mov	r3, #3
   1314c:	e1c460b2 	strh	r6, [r4, #2]
   13150:	e5845004 	str	r5, [r4, #4]
   13154:	e5c45001 	strb	r5, [r4, #1]
   13158:	e5c45008 	strb	r5, [r4, #8]
   1315c:	e5c45009 	strb	r5, [r4, #9]
   13160:	e5c4500a 	strb	r5, [r4, #10]
   13164:	e5c4500b 	strb	r5, [r4, #11]
   13168:	e5c4500c 	strb	r5, [r4, #12]
   1316c:	e5c4500d 	strb	r5, [r4, #13]
   13170:	e5c4500e 	strb	r5, [r4, #14]
   13174:	e5c4500f 	strb	r5, [r4, #15]
   13178:	e5c43000 	strb	r3, [r4]
   1317c:	e1a00004 	mov	r0, r4
   13180:	e8bd8070 	pop	{r4, r5, r6, pc}
   13184:	ebfff521 	bl	10610 <OS_CPU_SR_Restore>
   13188:	e1a00004 	mov	r0, r4
   1318c:	e8bd8070 	pop	{r4, r5, r6, pc}
   13190:	00016851 	andeq	r6, r1, r1, asr r8
   13194:	0001684c 	andeq	r6, r1, ip, asr #16

00013198 <OSSemDel>:
   13198:	e92d40f0 	push	{r4, r5, r6, r7, lr}
   1319c:	e59f3124 	ldr	r3, [pc, #292]	; 132c8 <OSSemDel+0x130>
   131a0:	e24dd00c 	sub	sp, sp, #12
   131a4:	e5d33000 	ldrb	r3, [r3]
   131a8:	e1a04000 	mov	r4, r0
   131ac:	e3530000 	cmp	r3, #0
   131b0:	13e03073 	mvnne	r3, #115	; 0x73
   131b4:	e1a05002 	mov	r5, r2
   131b8:	15c23000 	strbne	r3, [r2]
   131bc:	1a000008 	bne	131e4 <OSSemDel+0x4c>
   131c0:	e3500000 	cmp	r0, #0
   131c4:	03a03004 	moveq	r3, #4
   131c8:	05c23000 	strbeq	r3, [r2]
   131cc:	0a000004 	beq	131e4 <OSSemDel+0x4c>
   131d0:	e5d03000 	ldrb	r3, [r0]
   131d4:	e3530003 	cmp	r3, #3
   131d8:	0a000004 	beq	131f0 <OSSemDel+0x58>
   131dc:	e3a03001 	mov	r3, #1
   131e0:	e5c23000 	strb	r3, [r2]
   131e4:	e1a00004 	mov	r0, r4
   131e8:	e28dd00c 	add	sp, sp, #12
   131ec:	e8bd80f0 	pop	{r4, r5, r6, r7, pc}
   131f0:	e58d1004 	str	r1, [sp, #4]
   131f4:	ebfff4fd 	bl	105f0 <OS_CPU_SR_Save>
   131f8:	e5d46001 	ldrb	r6, [r4, #1]
   131fc:	e59d1004 	ldr	r1, [sp, #4]
   13200:	e2966000 	adds	r6, r6, #0
   13204:	13a06001 	movne	r6, #1
   13208:	e3510000 	cmp	r1, #0
   1320c:	e1a07000 	mov	r7, r0
   13210:	1a000005 	bne	1322c <OSSemDel+0x94>
   13214:	e3560000 	cmp	r6, #0
   13218:	0a00001f 	beq	1329c <OSSemDel+0x104>
   1321c:	ebfff4fb 	bl	10610 <OS_CPU_SR_Restore>
   13220:	e3a03008 	mov	r3, #8
   13224:	e5c53000 	strb	r3, [r5]
   13228:	eaffffed 	b	131e4 <OSSemDel+0x4c>
   1322c:	e3510001 	cmp	r1, #1
   13230:	0a000003 	beq	13244 <OSSemDel+0xac>
   13234:	ebfff4f5 	bl	10610 <OS_CPU_SR_Restore>
   13238:	e3a03007 	mov	r3, #7
   1323c:	e5c53000 	strb	r3, [r5]
   13240:	eaffffe7 	b	131e4 <OSSemDel+0x4c>
   13244:	e3560000 	cmp	r6, #0
   13248:	0a000006 	beq	13268 <OSSemDel+0xd0>
   1324c:	e1a00004 	mov	r0, r4
   13250:	e3a01000 	mov	r1, #0
   13254:	e3a02001 	mov	r2, #1
   13258:	ebfff678 	bl	10c40 <OS_EventTaskRdy>
   1325c:	e5d43001 	ldrb	r3, [r4, #1]
   13260:	e3530000 	cmp	r3, #0
   13264:	1afffff8 	bne	1324c <OSSemDel+0xb4>
   13268:	e59f305c 	ldr	r3, [pc, #92]	; 132cc <OSSemDel+0x134>
   1326c:	e3a02000 	mov	r2, #0
   13270:	e5c42000 	strb	r2, [r4]
   13274:	e5932000 	ldr	r2, [r3]
   13278:	e1a00007 	mov	r0, r7
   1327c:	e5842004 	str	r2, [r4, #4]
   13280:	e5834000 	str	r4, [r3]
   13284:	ebfff4e1 	bl	10610 <OS_CPU_SR_Restore>
   13288:	e3560001 	cmp	r6, #1
   1328c:	0a00000b 	beq	132c0 <OSSemDel+0x128>
   13290:	e3a04000 	mov	r4, #0
   13294:	e5c54000 	strb	r4, [r5]
   13298:	eaffffd1 	b	131e4 <OSSemDel+0x4c>
   1329c:	e59f3028 	ldr	r3, [pc, #40]	; 132cc <OSSemDel+0x134>
   132a0:	e5c46000 	strb	r6, [r4]
   132a4:	e5932000 	ldr	r2, [r3]
   132a8:	e5834000 	str	r4, [r3]
   132ac:	e5842004 	str	r2, [r4, #4]
   132b0:	ebfff4d6 	bl	10610 <OS_CPU_SR_Restore>
   132b4:	e1a04006 	mov	r4, r6
   132b8:	e5c56000 	strb	r6, [r5]
   132bc:	eaffffc8 	b	131e4 <OSSemDel+0x4c>
   132c0:	ebfff6c4 	bl	10dd8 <OS_Sched>
   132c4:	eafffff1 	b	13290 <OSSemDel+0xf8>
   132c8:	00016851 	andeq	r6, r1, r1, asr r8
   132cc:	0001684c 	andeq	r6, r1, ip, asr #16

000132d0 <OSSemPend>:
   132d0:	e92d40f0 	push	{r4, r5, r6, r7, lr}
   132d4:	e59f30e8 	ldr	r3, [pc, #232]	; 133c4 <OSSemPend+0xf4>
   132d8:	e24dd00c 	sub	sp, sp, #12
   132dc:	e5d35000 	ldrb	r5, [r3]
   132e0:	e1a04000 	mov	r4, r0
   132e4:	e3550000 	cmp	r5, #0
   132e8:	13a03002 	movne	r3, #2
   132ec:	e1a06002 	mov	r6, r2
   132f0:	15c23000 	strbne	r3, [r2]
   132f4:	1a000008 	bne	1331c <OSSemPend+0x4c>
   132f8:	e3500000 	cmp	r0, #0
   132fc:	03a03004 	moveq	r3, #4
   13300:	05c23000 	strbeq	r3, [r2]
   13304:	0a000004 	beq	1331c <OSSemPend+0x4c>
   13308:	e5d03000 	ldrb	r3, [r0]
   1330c:	e3530003 	cmp	r3, #3
   13310:	0a000003 	beq	13324 <OSSemPend+0x54>
   13314:	e3a03001 	mov	r3, #1
   13318:	e5c23000 	strb	r3, [r2]
   1331c:	e28dd00c 	add	sp, sp, #12
   13320:	e8bd80f0 	pop	{r4, r5, r6, r7, pc}
   13324:	e58d1004 	str	r1, [sp, #4]
   13328:	ebfff4b0 	bl	105f0 <OS_CPU_SR_Save>
   1332c:	e1d430b2 	ldrh	r3, [r4, #2]
   13330:	e1a07000 	mov	r7, r0
   13334:	e3530000 	cmp	r3, #0
   13338:	e59d1004 	ldr	r1, [sp, #4]
   1333c:	1a00001b 	bne	133b0 <OSSemPend+0xe0>
   13340:	e59f5080 	ldr	r5, [pc, #128]	; 133c8 <OSSemPend+0xf8>
   13344:	e1a00004 	mov	r0, r4
   13348:	e5953000 	ldr	r3, [r5]
   1334c:	e5d3202c 	ldrb	r2, [r3, #44]	; 0x2c
   13350:	e1c312ba 	strh	r1, [r3, #42]	; 0x2a
   13354:	e3822001 	orr	r2, r2, #1
   13358:	e5c3202c 	strb	r2, [r3, #44]	; 0x2c
   1335c:	ebfff663 	bl	10cf0 <OS_EventTaskWait>
   13360:	e1a00007 	mov	r0, r7
   13364:	ebfff4a9 	bl	10610 <OS_CPU_SR_Restore>
   13368:	ebfff69a 	bl	10dd8 <OS_Sched>
   1336c:	ebfff49f 	bl	105f0 <OS_CPU_SR_Save>
   13370:	e5952000 	ldr	r2, [r5]
   13374:	e1a07000 	mov	r7, r0
   13378:	e5d2302c 	ldrb	r3, [r2, #44]	; 0x2c
   1337c:	e2135001 	ands	r5, r3, #1
   13380:	1a000003 	bne	13394 <OSSemPend+0xc4>
   13384:	e582501c 	str	r5, [r2, #28]
   13388:	ebfff4a0 	bl	10610 <OS_CPU_SR_Restore>
   1338c:	e5c65000 	strb	r5, [r6]
   13390:	eaffffe1 	b	1331c <OSSemPend+0x4c>
   13394:	e1a00004 	mov	r0, r4
   13398:	ebfff671 	bl	10d64 <OS_EventTO>
   1339c:	e1a00007 	mov	r0, r7
   133a0:	ebfff49a 	bl	10610 <OS_CPU_SR_Restore>
   133a4:	e3a0300a 	mov	r3, #10
   133a8:	e5c63000 	strb	r3, [r6]
   133ac:	eaffffda 	b	1331c <OSSemPend+0x4c>
   133b0:	e2433001 	sub	r3, r3, #1
   133b4:	e1c430b2 	strh	r3, [r4, #2]
   133b8:	ebfff494 	bl	10610 <OS_CPU_SR_Restore>
   133bc:	e5c65000 	strb	r5, [r6]
   133c0:	eaffffd5 	b	1331c <OSSemPend+0x4c>
   133c4:	00016851 	andeq	r6, r1, r1, asr r8
   133c8:	00016854 	andeq	r6, r1, r4, asr r8

000133cc <OSSemPost>:
   133cc:	e92d4070 	push	{r4, r5, r6, lr}
   133d0:	e2504000 	subs	r4, r0, #0
   133d4:	0a000004 	beq	133ec <OSSemPost+0x20>
   133d8:	e5d43000 	ldrb	r3, [r4]
   133dc:	e3530003 	cmp	r3, #3
   133e0:	0a000003 	beq	133f4 <OSSemPost+0x28>
   133e4:	e3a00001 	mov	r0, #1
   133e8:	e8bd8070 	pop	{r4, r5, r6, pc}
   133ec:	e3a00004 	mov	r0, #4
   133f0:	e8bd8070 	pop	{r4, r5, r6, pc}
   133f4:	ebfff47d 	bl	105f0 <OS_CPU_SR_Save>
   133f8:	e5d45001 	ldrb	r5, [r4, #1]
   133fc:	e1a06000 	mov	r6, r0
   13400:	e3550000 	cmp	r5, #0
   13404:	1a00000b 	bne	13438 <OSSemPost+0x6c>
   13408:	e1d430b2 	ldrh	r3, [r4, #2]
   1340c:	e59f2048 	ldr	r2, [pc, #72]	; 1345c <OSSemPost+0x90>
   13410:	e1530002 	cmp	r3, r2
   13414:	0a000004 	beq	1342c <OSSemPost+0x60>
   13418:	e2833001 	add	r3, r3, #1
   1341c:	e1c430b2 	strh	r3, [r4, #2]
   13420:	ebfff47a 	bl	10610 <OS_CPU_SR_Restore>
   13424:	e1a00005 	mov	r0, r5
   13428:	e8bd8070 	pop	{r4, r5, r6, pc}
   1342c:	ebfff477 	bl	10610 <OS_CPU_SR_Restore>
   13430:	e3a00032 	mov	r0, #50	; 0x32
   13434:	e8bd8070 	pop	{r4, r5, r6, pc}
   13438:	e3a01000 	mov	r1, #0
   1343c:	e3a02001 	mov	r2, #1
   13440:	e1a00004 	mov	r0, r4
   13444:	ebfff5fd 	bl	10c40 <OS_EventTaskRdy>
   13448:	e1a00006 	mov	r0, r6
   1344c:	ebfff46f 	bl	10610 <OS_CPU_SR_Restore>
   13450:	ebfff660 	bl	10dd8 <OS_Sched>
   13454:	e3a00000 	mov	r0, #0
   13458:	e8bd8070 	pop	{r4, r5, r6, pc}
   1345c:	0000ffff 	strdeq	pc, [r0], -pc	; <UNPREDICTABLE>

00013460 <OSSemQuery>:
   13460:	e92d4010 	push	{r4, lr}
   13464:	e2504000 	subs	r4, r0, #0
   13468:	e24dd008 	sub	sp, sp, #8
   1346c:	03a00004 	moveq	r0, #4
   13470:	0a000003 	beq	13484 <OSSemQuery+0x24>
   13474:	e5d43000 	ldrb	r3, [r4]
   13478:	e3530003 	cmp	r3, #3
   1347c:	13a00001 	movne	r0, #1
   13480:	0a000001 	beq	1348c <OSSemQuery+0x2c>
   13484:	e28dd008 	add	sp, sp, #8
   13488:	e8bd8010 	pop	{r4, pc}
   1348c:	e58d1004 	str	r1, [sp, #4]
   13490:	ebfff456 	bl	105f0 <OS_CPU_SR_Save>
   13494:	e5d43001 	ldrb	r3, [r4, #1]
   13498:	e59d1004 	ldr	r1, [sp, #4]
   1349c:	e5c1300a 	strb	r3, [r1, #10]
   134a0:	e5d43008 	ldrb	r3, [r4, #8]
   134a4:	e5c13002 	strb	r3, [r1, #2]
   134a8:	e5d43009 	ldrb	r3, [r4, #9]
   134ac:	e5c13003 	strb	r3, [r1, #3]
   134b0:	e5d4300a 	ldrb	r3, [r4, #10]
   134b4:	e5c13004 	strb	r3, [r1, #4]
   134b8:	e5d4300b 	ldrb	r3, [r4, #11]
   134bc:	e5c13005 	strb	r3, [r1, #5]
   134c0:	e5d4300c 	ldrb	r3, [r4, #12]
   134c4:	e5c13006 	strb	r3, [r1, #6]
   134c8:	e5d4300d 	ldrb	r3, [r4, #13]
   134cc:	e5c13007 	strb	r3, [r1, #7]
   134d0:	e5d4300e 	ldrb	r3, [r4, #14]
   134d4:	e5c13008 	strb	r3, [r1, #8]
   134d8:	e5d4300f 	ldrb	r3, [r4, #15]
   134dc:	e5c13009 	strb	r3, [r1, #9]
   134e0:	e1d430b2 	ldrh	r3, [r4, #2]
   134e4:	e1c130b0 	strh	r3, [r1]
   134e8:	ebfff448 	bl	10610 <OS_CPU_SR_Restore>
   134ec:	e3a00000 	mov	r0, #0
   134f0:	eaffffe3 	b	13484 <OSSemQuery+0x24>

000134f4 <OSTaskChangePrio>:
   134f4:	e92d45f0 	push	{r4, r5, r6, r7, r8, sl, lr}
   134f8:	e240303f 	sub	r3, r0, #63	; 0x3f
   134fc:	e6ef3073 	uxtb	r3, r3
   13500:	e35300bf 	cmp	r3, #191	; 0xbf
   13504:	e24dd00c 	sub	sp, sp, #12
   13508:	e1a04000 	mov	r4, r0
   1350c:	8a000002 	bhi	1351c <OSTaskChangePrio+0x28>
   13510:	e3a0002a 	mov	r0, #42	; 0x2a
   13514:	e28dd00c 	add	sp, sp, #12
   13518:	e8bd85f0 	pop	{r4, r5, r6, r7, r8, sl, pc}
   1351c:	e351003e 	cmp	r1, #62	; 0x3e
   13520:	8afffffa 	bhi	13510 <OSTaskChangePrio+0x1c>
   13524:	e58d1004 	str	r1, [sp, #4]
   13528:	e59f5158 	ldr	r5, [pc, #344]	; 13688 <OSTaskChangePrio+0x194>
   1352c:	ebfff42f 	bl	105f0 <OS_CPU_SR_Save>
   13530:	e59d1004 	ldr	r1, [sp, #4]
   13534:	e7953101 	ldr	r3, [r5, r1, lsl #2]
   13538:	e3530000 	cmp	r3, #0
   1353c:	0a000002 	beq	1354c <OSTaskChangePrio+0x58>
   13540:	ebfff432 	bl	10610 <OS_CPU_SR_Restore>
   13544:	e3a00028 	mov	r0, #40	; 0x28
   13548:	eafffff1 	b	13514 <OSTaskChangePrio+0x20>
   1354c:	e3a03001 	mov	r3, #1
   13550:	e7853101 	str	r3, [r5, r1, lsl #2]
   13554:	e58d1004 	str	r1, [sp, #4]
   13558:	ebfff42c 	bl	10610 <OS_CPU_SR_Restore>
   1355c:	e59d1004 	ldr	r1, [sp, #4]
   13560:	e59f3124 	ldr	r3, [pc, #292]	; 1368c <OSTaskChangePrio+0x198>
   13564:	e1a061a1 	lsr	r6, r1, #3
   13568:	e2017007 	and	r7, r1, #7
   1356c:	e0832006 	add	r2, r3, r6
   13570:	e0833007 	add	r3, r3, r7
   13574:	e5d38100 	ldrb	r8, [r3, #256]	; 0x100
   13578:	e5d2a100 	ldrb	sl, [r2, #256]	; 0x100
   1357c:	ebfff41b 	bl	105f0 <OS_CPU_SR_Save>
   13580:	e35400ff 	cmp	r4, #255	; 0xff
   13584:	059f3104 	ldreq	r3, [pc, #260]	; 13690 <OSTaskChangePrio+0x19c>
   13588:	e59d1004 	ldr	r1, [sp, #4]
   1358c:	05933000 	ldreq	r3, [r3]
   13590:	e59f20f0 	ldr	r2, [pc, #240]	; 13688 <OSTaskChangePrio+0x194>
   13594:	05d3402d 	ldrbeq	r4, [r3, #45]	; 0x2d
   13598:	e7953104 	ldr	r3, [r5, r4, lsl #2]
   1359c:	e3530001 	cmp	r3, #1
   135a0:	9a00001f 	bls	13624 <OSTaskChangePrio+0x130>
   135a4:	e3a0c000 	mov	ip, #0
   135a8:	e782c104 	str	ip, [r2, r4, lsl #2]
   135ac:	e5d3e02f 	ldrb	lr, [r3, #47]	; 0x2f
   135b0:	e59f20dc 	ldr	r2, [pc, #220]	; 13694 <OSTaskChangePrio+0x1a0>
   135b4:	e5d3c030 	ldrb	ip, [r3, #48]	; 0x30
   135b8:	e7d2400e 	ldrb	r4, [r2, lr]
   135bc:	e114000c 	tst	r4, ip
   135c0:	0a00001c 	beq	13638 <OSTaskChangePrio+0x144>
   135c4:	e1c4c00c 	bic	ip, r4, ip
   135c8:	e7c2c00e 	strb	ip, [r2, lr]
   135cc:	e35c0000 	cmp	ip, #0
   135d0:	e59fc0c0 	ldr	ip, [pc, #192]	; 13698 <OSTaskChangePrio+0x1a4>
   135d4:	05d34031 	ldrbeq	r4, [r3, #49]	; 0x31
   135d8:	05dce000 	ldrbeq	lr, [ip]
   135dc:	01cee004 	biceq	lr, lr, r4
   135e0:	05cce000 	strbeq	lr, [ip]
   135e4:	e5dc4000 	ldrb	r4, [ip]
   135e8:	e7d2e006 	ldrb	lr, [r2, r6]
   135ec:	e18a4004 	orr	r4, sl, r4
   135f0:	e188e00e 	orr	lr, r8, lr
   135f4:	e5cc4000 	strb	r4, [ip]
   135f8:	e7c2e006 	strb	lr, [r2, r6]
   135fc:	e7853101 	str	r3, [r5, r1, lsl #2]
   13600:	e5c3102d 	strb	r1, [r3, #45]	; 0x2d
   13604:	e5c3602f 	strb	r6, [r3, #47]	; 0x2f
   13608:	e5c3702e 	strb	r7, [r3, #46]	; 0x2e
   1360c:	e5c3a031 	strb	sl, [r3, #49]	; 0x31
   13610:	e5c38030 	strb	r8, [r3, #48]	; 0x30
   13614:	ebfff3fd 	bl	10610 <OS_CPU_SR_Restore>
   13618:	ebfff5ee 	bl	10dd8 <OS_Sched>
   1361c:	e3a00000 	mov	r0, #0
   13620:	eaffffbb 	b	13514 <OSTaskChangePrio+0x20>
   13624:	e3a03000 	mov	r3, #0
   13628:	e7823101 	str	r3, [r2, r1, lsl #2]
   1362c:	ebfff3f7 	bl	10610 <OS_CPU_SR_Restore>
   13630:	e3a00029 	mov	r0, #41	; 0x29
   13634:	eaffffb6 	b	13514 <OSTaskChangePrio+0x20>
   13638:	e593201c 	ldr	r2, [r3, #28]
   1363c:	e3520000 	cmp	r2, #0
   13640:	0affffed 	beq	135fc <OSTaskChangePrio+0x108>
   13644:	e082e00e 	add	lr, r2, lr
   13648:	e5de4008 	ldrb	r4, [lr, #8]
   1364c:	e1c4c00c 	bic	ip, r4, ip
   13650:	e5cec008 	strb	ip, [lr, #8]
   13654:	e35c0000 	cmp	ip, #0
   13658:	05d3e031 	ldrbeq	lr, [r3, #49]	; 0x31
   1365c:	05d2c001 	ldrbeq	ip, [r2, #1]
   13660:	01ccc00e 	biceq	ip, ip, lr
   13664:	05c2c001 	strbeq	ip, [r2, #1]
   13668:	e082c006 	add	ip, r2, r6
   1366c:	e5dc4008 	ldrb	r4, [ip, #8]
   13670:	e5d2e001 	ldrb	lr, [r2, #1]
   13674:	e1884004 	orr	r4, r8, r4
   13678:	e18ae00e 	orr	lr, sl, lr
   1367c:	e5cc4008 	strb	r4, [ip, #8]
   13680:	e5c2e001 	strb	lr, [r2, #1]
   13684:	eaffffdc 	b	135fc <OSTaskChangePrio+0x108>
   13688:	000174c8 	andeq	r7, r1, r8, asr #9
   1368c:	00015ac4 	andeq	r5, r1, r4, asr #21
   13690:	00016854 	andeq	r6, r1, r4, asr r8
   13694:	00016844 	andeq	r6, r1, r4, asr #16
   13698:	00016840 	andeq	r6, r1, r0, asr #16

0001369c <OSTaskCreate>:
   1369c:	e92d40f0 	push	{r4, r5, r6, r7, lr}
   136a0:	e353003f 	cmp	r3, #63	; 0x3f
   136a4:	e1a05000 	mov	r5, r0
   136a8:	e24dd01c 	sub	sp, sp, #28
   136ac:	e1a04003 	mov	r4, r3
   136b0:	83a0502a 	movhi	r5, #42	; 0x2a
   136b4:	9a000002 	bls	136c4 <OSTaskCreate+0x28>
   136b8:	e1a00005 	mov	r0, r5
   136bc:	e28dd01c 	add	sp, sp, #28
   136c0:	e8bd80f0 	pop	{r4, r5, r6, r7, pc}
   136c4:	e59f70a8 	ldr	r7, [pc, #168]	; 13774 <OSTaskCreate+0xd8>
   136c8:	e58d1014 	str	r1, [sp, #20]
   136cc:	e58d2010 	str	r2, [sp, #16]
   136d0:	ebfff3c6 	bl	105f0 <OS_CPU_SR_Save>
   136d4:	e7976104 	ldr	r6, [r7, r4, lsl #2]
   136d8:	e3560000 	cmp	r6, #0
   136dc:	0a000002 	beq	136ec <OSTaskCreate+0x50>
   136e0:	ebfff3ca 	bl	10610 <OS_CPU_SR_Restore>
   136e4:	e3a05028 	mov	r5, #40	; 0x28
   136e8:	eafffff2 	b	136b8 <OSTaskCreate+0x1c>
   136ec:	e3a03001 	mov	r3, #1
   136f0:	e7873104 	str	r3, [r7, r4, lsl #2]
   136f4:	ebfff3c5 	bl	10610 <OS_CPU_SR_Restore>
   136f8:	e1a00005 	mov	r0, r5
   136fc:	e59d1014 	ldr	r1, [sp, #20]
   13700:	e59d2010 	ldr	r2, [sp, #16]
   13704:	e1a03006 	mov	r3, r6
   13708:	ebfff401 	bl	10714 <OSTaskStkInit>
   1370c:	e58d6000 	str	r6, [sp]
   13710:	e1a01000 	mov	r1, r0
   13714:	e58d6004 	str	r6, [sp, #4]
   13718:	e58d6008 	str	r6, [sp, #8]
   1371c:	e1a00004 	mov	r0, r4
   13720:	e1a02006 	mov	r2, r6
   13724:	e1a03006 	mov	r3, r6
   13728:	ebfff65b 	bl	1109c <OS_TCBInit>
   1372c:	e2505000 	subs	r5, r0, #0
   13730:	1a00000b 	bne	13764 <OSTaskCreate+0xc8>
   13734:	ebfff3ad 	bl	105f0 <OS_CPU_SR_Save>
   13738:	e59f3038 	ldr	r3, [pc, #56]	; 13778 <OSTaskCreate+0xdc>
   1373c:	e5d32000 	ldrb	r2, [r3]
   13740:	e2822001 	add	r2, r2, #1
   13744:	e5c32000 	strb	r2, [r3]
   13748:	ebfff3b0 	bl	10610 <OS_CPU_SR_Restore>
   1374c:	e59f3028 	ldr	r3, [pc, #40]	; 1377c <OSTaskCreate+0xe0>
   13750:	e5d33000 	ldrb	r3, [r3]
   13754:	e3530001 	cmp	r3, #1
   13758:	1affffd6 	bne	136b8 <OSTaskCreate+0x1c>
   1375c:	ebfff59d 	bl	10dd8 <OS_Sched>
   13760:	eaffffd4 	b	136b8 <OSTaskCreate+0x1c>
   13764:	ebfff3a1 	bl	105f0 <OS_CPU_SR_Save>
   13768:	e7876104 	str	r6, [r7, r4, lsl #2]
   1376c:	ebfff3a7 	bl	10610 <OS_CPU_SR_Restore>
   13770:	eaffffd0 	b	136b8 <OSTaskCreate+0x1c>
   13774:	000174c8 	andeq	r7, r1, r8, asr #9
   13778:	000167b9 			; <UNDEFINED> instruction: 0x000167b9
   1377c:	00015ef9 	strdeq	r5, [r1], -r9

00013780 <OSTaskCreateExt>:
   13780:	e92d4ff0 	push	{r4, r5, r6, r7, r8, r9, sl, fp, lr}
   13784:	e353003f 	cmp	r3, #63	; 0x3f
   13788:	e24dd014 	sub	sp, sp, #20
   1378c:	e1dd54b8 	ldrh	r5, [sp, #72]	; 0x48
   13790:	e1a04003 	mov	r4, r3
   13794:	e1a0a000 	mov	sl, r0
   13798:	e1a08001 	mov	r8, r1
   1379c:	e1a07002 	mov	r7, r2
   137a0:	e1dd63b8 	ldrh	r6, [sp, #56]	; 0x38
   137a4:	83a0502a 	movhi	r5, #42	; 0x2a
   137a8:	9a000002 	bls	137b8 <OSTaskCreateExt+0x38>
   137ac:	e1a00005 	mov	r0, r5
   137b0:	e28dd014 	add	sp, sp, #20
   137b4:	e8bd8ff0 	pop	{r4, r5, r6, r7, r8, r9, sl, fp, pc}
   137b8:	e59f90c8 	ldr	r9, [pc, #200]	; 13888 <OSTaskCreateExt+0x108>
   137bc:	ebfff38b 	bl	105f0 <OS_CPU_SR_Save>
   137c0:	e799b104 	ldr	fp, [r9, r4, lsl #2]
   137c4:	e35b0000 	cmp	fp, #0
   137c8:	0a000002 	beq	137d8 <OSTaskCreateExt+0x58>
   137cc:	ebfff38f 	bl	10610 <OS_CPU_SR_Restore>
   137d0:	e3a05028 	mov	r5, #40	; 0x28
   137d4:	eafffff4 	b	137ac <OSTaskCreateExt+0x2c>
   137d8:	e3a03001 	mov	r3, #1
   137dc:	e7893104 	str	r3, [r9, r4, lsl #2]
   137e0:	ebfff38a 	bl	10610 <OS_CPU_SR_Restore>
   137e4:	e3150003 	tst	r5, #3
   137e8:	1a000020 	bne	13870 <OSTaskCreateExt+0xf0>
   137ec:	e1a03005 	mov	r3, r5
   137f0:	e1a01008 	mov	r1, r8
   137f4:	e1a02007 	mov	r2, r7
   137f8:	e1a0000a 	mov	r0, sl
   137fc:	ebfff3c4 	bl	10714 <OSTaskStkInit>
   13800:	e59d3040 	ldr	r3, [sp, #64]	; 0x40
   13804:	e1a01000 	mov	r1, r0
   13808:	e58d3000 	str	r3, [sp]
   1380c:	e59d3044 	ldr	r3, [sp, #68]	; 0x44
   13810:	e1a00004 	mov	r0, r4
   13814:	e98d0028 	stmib	sp, {r3, r5}
   13818:	e59d203c 	ldr	r2, [sp, #60]	; 0x3c
   1381c:	e1a03006 	mov	r3, r6
   13820:	ebfff61d 	bl	1109c <OS_TCBInit>
   13824:	e2505000 	subs	r5, r0, #0
   13828:	1a00000b 	bne	1385c <OSTaskCreateExt+0xdc>
   1382c:	ebfff36f 	bl	105f0 <OS_CPU_SR_Save>
   13830:	e59f3054 	ldr	r3, [pc, #84]	; 1388c <OSTaskCreateExt+0x10c>
   13834:	e5d32000 	ldrb	r2, [r3]
   13838:	e2822001 	add	r2, r2, #1
   1383c:	e5c32000 	strb	r2, [r3]
   13840:	ebfff372 	bl	10610 <OS_CPU_SR_Restore>
   13844:	e59f3044 	ldr	r3, [pc, #68]	; 13890 <OSTaskCreateExt+0x110>
   13848:	e5d33000 	ldrb	r3, [r3]
   1384c:	e3530001 	cmp	r3, #1
   13850:	1affffd5 	bne	137ac <OSTaskCreateExt+0x2c>
   13854:	ebfff55f 	bl	10dd8 <OS_Sched>
   13858:	eaffffd3 	b	137ac <OSTaskCreateExt+0x2c>
   1385c:	ebfff363 	bl	105f0 <OS_CPU_SR_Save>
   13860:	e3a03000 	mov	r3, #0
   13864:	e7893104 	str	r3, [r9, r4, lsl #2]
   13868:	ebfff368 	bl	10610 <OS_CPU_SR_Restore>
   1386c:	eaffffce 	b	137ac <OSTaskCreateExt+0x2c>
   13870:	e59d3040 	ldr	r3, [sp, #64]	; 0x40
   13874:	e1a0100b 	mov	r1, fp
   13878:	e59d003c 	ldr	r0, [sp, #60]	; 0x3c
   1387c:	e1a02103 	lsl	r2, r3, #2
   13880:	eb0005b5 	bl	14f5c <memset>
   13884:	eaffffd8 	b	137ec <OSTaskCreateExt+0x6c>
   13888:	000174c8 	andeq	r7, r1, r8, asr #9
   1388c:	000167b9 			; <UNDEFINED> instruction: 0x000167b9
   13890:	00015ef9 	strdeq	r5, [r1], -r9

00013894 <OSInit>:
   13894:	e92d4ff0 	push	{r4, r5, r6, r7, r8, r9, sl, fp, lr}
   13898:	e24dd01c 	sub	sp, sp, #28
   1389c:	ebfff3d1 	bl	107e8 <OSInitHookBegin>
   138a0:	e59fe1f0 	ldr	lr, [pc, #496]	; 13a98 <OSInit+0x204>
   138a4:	e59fc1f0 	ldr	ip, [pc, #496]	; 13a9c <OSInit+0x208>
   138a8:	e59f01f0 	ldr	r0, [pc, #496]	; 13aa0 <OSInit+0x20c>
   138ac:	e59f21f0 	ldr	r2, [pc, #496]	; 13aa4 <OSInit+0x210>
   138b0:	e59f31f0 	ldr	r3, [pc, #496]	; 13aa8 <OSInit+0x214>
   138b4:	e3a01000 	mov	r1, #0
   138b8:	e58e1000 	str	r1, [lr]
   138bc:	e5cc1000 	strb	r1, [ip]
   138c0:	e5c01000 	strb	r1, [r0]
   138c4:	e5c21000 	strb	r1, [r2]
   138c8:	e59fb1dc 	ldr	fp, [pc, #476]	; 13aac <OSInit+0x218>
   138cc:	e59f21dc 	ldr	r2, [pc, #476]	; 13ab0 <OSInit+0x21c>
   138d0:	e59f91dc 	ldr	r9, [pc, #476]	; 13ab4 <OSInit+0x220>
   138d4:	e59fa1dc 	ldr	sl, [pc, #476]	; 13ab8 <OSInit+0x224>
   138d8:	e59f81dc 	ldr	r8, [pc, #476]	; 13abc <OSInit+0x228>
   138dc:	e59f71dc 	ldr	r7, [pc, #476]	; 13ac0 <OSInit+0x22c>
   138e0:	e59f61dc 	ldr	r6, [pc, #476]	; 13ac4 <OSInit+0x230>
   138e4:	e59f51dc 	ldr	r5, [pc, #476]	; 13ac8 <OSInit+0x234>
   138e8:	e59f41dc 	ldr	r4, [pc, #476]	; 13acc <OSInit+0x238>
   138ec:	e59fe1dc 	ldr	lr, [pc, #476]	; 13ad0 <OSInit+0x23c>
   138f0:	e59fc1dc 	ldr	ip, [pc, #476]	; 13ad4 <OSInit+0x240>
   138f4:	e59f01dc 	ldr	r0, [pc, #476]	; 13ad8 <OSInit+0x244>
   138f8:	e5c31000 	strb	r1, [r3]
   138fc:	e59f31d8 	ldr	r3, [pc, #472]	; 13adc <OSInit+0x248>
   13900:	e5c21000 	strb	r1, [r2]
   13904:	e5c21001 	strb	r1, [r2, #1]
   13908:	e5c21002 	strb	r1, [r2, #2]
   1390c:	e5c21003 	strb	r1, [r2, #3]
   13910:	e5c21004 	strb	r1, [r2, #4]
   13914:	e5c21005 	strb	r1, [r2, #5]
   13918:	e5c21006 	strb	r1, [r2, #6]
   1391c:	e5c21007 	strb	r1, [r2, #7]
   13920:	e58b1000 	str	r1, [fp]
   13924:	e5891000 	str	r1, [r9]
   13928:	e58a1000 	str	r1, [sl]
   1392c:	e5881000 	str	r1, [r8]
   13930:	e5c71000 	strb	r1, [r7]
   13934:	e5c61000 	strb	r1, [r6]
   13938:	e5c51000 	strb	r1, [r5]
   1393c:	e5c41000 	strb	r1, [r4]
   13940:	e58e1000 	str	r1, [lr]
   13944:	e58c1000 	str	r1, [ip]
   13948:	e5801000 	str	r1, [r0]
   1394c:	e2832c01 	add	r2, r3, #256	; 0x100
   13950:	e5a31004 	str	r1, [r3, #4]!
   13954:	e1530002 	cmp	r3, r2
   13958:	1afffffc 	bne	13950 <OSInit+0xbc>
   1395c:	e59f217c 	ldr	r2, [pc, #380]	; 13ae0 <OSInit+0x24c>
   13960:	e2823d0d 	add	r3, r2, #832	; 0x340
   13964:	e5022020 	str	r2, [r2, #-32]	; 0xffffffe0
   13968:	e2822034 	add	r2, r2, #52	; 0x34
   1396c:	e1520003 	cmp	r2, r3
   13970:	1afffffb 	bne	13964 <OSInit+0xd0>
   13974:	e59f0168 	ldr	r0, [pc, #360]	; 13ae4 <OSInit+0x250>
   13978:	e59f3168 	ldr	r3, [pc, #360]	; 13ae8 <OSInit+0x254>
   1397c:	e2422fdd 	sub	r2, r2, #884	; 0x374
   13980:	e3a01000 	mov	r1, #0
   13984:	e5802000 	str	r2, [r0]
   13988:	e5821354 	str	r1, [r2, #852]	; 0x354
   1398c:	e28320e0 	add	r2, r3, #224	; 0xe0
   13990:	e5431010 	strb	r1, [r3, #-16]
   13994:	e503300c 	str	r3, [r3, #-12]
   13998:	e2833010 	add	r3, r3, #16
   1399c:	e1530002 	cmp	r3, r2
   139a0:	e3a04000 	mov	r4, #0
   139a4:	1afffff9 	bne	13990 <OSInit+0xfc>
   139a8:	e59f213c 	ldr	r2, [pc, #316]	; 13aec <OSInit+0x258>
   139ac:	e59f013c 	ldr	r0, [pc, #316]	; 13af0 <OSInit+0x25c>
   139b0:	e1a01002 	mov	r1, r2
   139b4:	e2825018 	add	r5, r2, #24
   139b8:	e282e024 	add	lr, r2, #36	; 0x24
   139bc:	e282c030 	add	ip, r2, #48	; 0x30
   139c0:	e4c1400c 	strb	r4, [r1], #12
   139c4:	e59f6128 	ldr	r6, [pc, #296]	; 13af4 <OSInit+0x260>
   139c8:	e5434010 	strb	r4, [r3, #-16]
   139cc:	e503400c 	str	r4, [r3, #-12]
   139d0:	e5c2400c 	strb	r4, [r2, #12]
   139d4:	e24330f0 	sub	r3, r3, #240	; 0xf0
   139d8:	e5c24018 	strb	r4, [r2, #24]
   139dc:	e5c24024 	strb	r4, [r2, #36]	; 0x24
   139e0:	e5824034 	str	r4, [r2, #52]	; 0x34
   139e4:	e5825010 	str	r5, [r2, #16]
   139e8:	e582e01c 	str	lr, [r2, #28]
   139ec:	e582c028 	str	ip, [r2, #40]	; 0x28
   139f0:	e5821004 	str	r1, [r2, #4]
   139f4:	e5863000 	str	r3, [r6]
   139f8:	e5802000 	str	r2, [r0]
   139fc:	ebfff9ba 	bl	120ec <OS_MemInit>
   13a00:	e59fc0f0 	ldr	ip, [pc, #240]	; 13af8 <OSInit+0x264>
   13a04:	e59f20f0 	ldr	r2, [pc, #240]	; 13afc <OSInit+0x268>
   13a08:	e28c1018 	add	r1, ip, #24
   13a0c:	e1a0e00c 	mov	lr, ip
   13a10:	e59f30e8 	ldr	r3, [pc, #232]	; 13b00 <OSInit+0x26c>
   13a14:	e59f70e8 	ldr	r7, [pc, #232]	; 13b04 <OSInit+0x270>
   13a18:	e58d400c 	str	r4, [sp, #12]
   13a1c:	e28ca048 	add	sl, ip, #72	; 0x48
   13a20:	e48e1030 	str	r1, [lr], #48	; 0x30
   13a24:	e28c8060 	add	r8, ip, #96	; 0x60
   13a28:	e3a06c02 	mov	r6, #512	; 0x200
   13a2c:	e3a05003 	mov	r5, #3
   13a30:	e88d004c 	stm	sp, {r2, r3, r6}
   13a34:	e58d5010 	str	r5, [sp, #16]
   13a38:	e1a01004 	mov	r1, r4
   13a3c:	e58c4060 	str	r4, [ip, #96]	; 0x60
   13a40:	e58ca030 	str	sl, [ip, #48]	; 0x30
   13a44:	e58c8048 	str	r8, [ip, #72]	; 0x48
   13a48:	e587c000 	str	ip, [r7]
   13a4c:	e58ce018 	str	lr, [ip, #24]
   13a50:	e59f20b0 	ldr	r2, [pc, #176]	; 13b08 <OSInit+0x274>
   13a54:	e3a0303f 	mov	r3, #63	; 0x3f
   13a58:	e59f00ac 	ldr	r0, [pc, #172]	; 13b0c <OSInit+0x278>
   13a5c:	ebffff47 	bl	13780 <OSTaskCreateExt>
   13a60:	e59f20a8 	ldr	r2, [pc, #168]	; 13b10 <OSInit+0x27c>
   13a64:	e59f30a8 	ldr	r3, [pc, #168]	; 13b14 <OSInit+0x280>
   13a68:	e58d6008 	str	r6, [sp, #8]
   13a6c:	e88d000c 	stm	sp, {r2, r3}
   13a70:	e58d5010 	str	r5, [sp, #16]
   13a74:	e58d400c 	str	r4, [sp, #12]
   13a78:	e1a01004 	mov	r1, r4
   13a7c:	e59f2094 	ldr	r2, [pc, #148]	; 13b18 <OSInit+0x284>
   13a80:	e3a0303e 	mov	r3, #62	; 0x3e
   13a84:	e59f0090 	ldr	r0, [pc, #144]	; 13b1c <OSInit+0x288>
   13a88:	ebffff3c 	bl	13780 <OSTaskCreateExt>
   13a8c:	e28dd01c 	add	sp, sp, #28
   13a90:	e8bd4ff0 	pop	{r4, r5, r6, r7, r8, r9, sl, fp, lr}
   13a94:	eafff354 	b	107ec <OSInitHookEnd>
   13a98:	00016858 	andeq	r6, r1, r8, asr r8
   13a9c:	00016851 	andeq	r6, r1, r1, asr r8
   13aa0:	00015ef8 	strdeq	r5, [r1], -r8
   13aa4:	000167b9 			; <UNDEFINED> instruction: 0x000167b9
   13aa8:	00015ef9 	strdeq	r5, [r1], -r9
   13aac:	000167ac 	andeq	r6, r1, ip, lsr #15
   13ab0:	00016844 	andeq	r6, r1, r4, asr #16
   13ab4:	00015efc 	strdeq	r5, [r1], -ip
   13ab8:	000175c8 	andeq	r7, r1, r8, asr #11
   13abc:	000167b0 			; <UNDEFINED> instruction: 0x000167b0
   13ac0:	000174c4 	andeq	r7, r1, r4, asr #9
   13ac4:	00016840 	andeq	r6, r1, r0, asr #16
   13ac8:	00015f40 	andeq	r5, r1, r0, asr #30
   13acc:	00015f00 	andeq	r5, r1, r0, lsl #30
   13ad0:	00016838 	andeq	r6, r1, r8, lsr r8
   13ad4:	00016854 	andeq	r6, r1, r4, asr r8
   13ad8:	00015f44 	andeq	r5, r1, r4, asr #30
   13adc:	000174c4 	andeq	r7, r1, r4, asr #9
   13ae0:	00017180 	andeq	r7, r1, r0, lsl #3
   13ae4:	000167b4 			; <UNDEFINED> instruction: 0x000167b4
   13ae8:	0001706c 	andeq	r7, r1, ip, rrx
   13aec:	00015f04 	andeq	r5, r1, r4, lsl #30
   13af0:	000174c0 	andeq	r7, r1, r0, asr #9
   13af4:	0001684c 	andeq	r6, r1, ip, asr #16
   13af8:	000167c0 	andeq	r6, r1, r0, asr #15
   13afc:	0000ffff 	strdeq	pc, [r0], -pc	; <UNPREDICTABLE>
   13b00:	0001685c 	andeq	r6, r1, ip, asr r8
   13b04:	0001683c 	andeq	r6, r1, ip, lsr r8
   13b08:	00017058 	andeq	r7, r1, r8, asr r0
   13b0c:	00010938 	andeq	r0, r1, r8, lsr r9
   13b10:	0000fffe 	strdeq	pc, [r0], -lr
   13b14:	00015fac 	andeq	r5, r1, ip, lsr #31
   13b18:	000167a8 	andeq	r6, r1, r8, lsr #15
   13b1c:	00010f7c 	andeq	r0, r1, ip, ror pc

00013b20 <OSTaskDel>:
   13b20:	e92d41f0 	push	{r4, r5, r6, r7, r8, lr}
   13b24:	e59f31c8 	ldr	r3, [pc, #456]	; 13cf4 <OSTaskDel+0x1d4>
   13b28:	e1a04000 	mov	r4, r0
   13b2c:	e5d33000 	ldrb	r3, [r3]
   13b30:	e3530000 	cmp	r3, #0
   13b34:	0a000001 	beq	13b40 <OSTaskDel+0x20>
   13b38:	e3a0003f 	mov	r0, #63	; 0x3f
   13b3c:	e8bd81f0 	pop	{r4, r5, r6, r7, r8, pc}
   13b40:	e350003f 	cmp	r0, #63	; 0x3f
   13b44:	0a000005 	beq	13b60 <OSTaskDel+0x40>
   13b48:	e240303f 	sub	r3, r0, #63	; 0x3f
   13b4c:	e6ef3073 	uxtb	r3, r3
   13b50:	e35300bf 	cmp	r3, #191	; 0xbf
   13b54:	8a000003 	bhi	13b68 <OSTaskDel+0x48>
   13b58:	e3a0002a 	mov	r0, #42	; 0x2a
   13b5c:	e8bd81f0 	pop	{r4, r5, r6, r7, r8, pc}
   13b60:	e3a0003d 	mov	r0, #61	; 0x3d
   13b64:	e8bd81f0 	pop	{r4, r5, r6, r7, r8, pc}
   13b68:	ebfff2a0 	bl	105f0 <OS_CPU_SR_Save>
   13b6c:	e35400ff 	cmp	r4, #255	; 0xff
   13b70:	059f3180 	ldreq	r3, [pc, #384]	; 13cf8 <OSTaskDel+0x1d8>
   13b74:	e59f6180 	ldr	r6, [pc, #384]	; 13cfc <OSTaskDel+0x1dc>
   13b78:	05933000 	ldreq	r3, [r3]
   13b7c:	05d3402d 	ldrbeq	r4, [r3, #45]	; 0x2d
   13b80:	e7965104 	ldr	r5, [r6, r4, lsl #2]
   13b84:	e3550001 	cmp	r5, #1
   13b88:	9a000051 	bls	13cd4 <OSTaskDel+0x1b4>
   13b8c:	e59f216c 	ldr	r2, [pc, #364]	; 13d00 <OSTaskDel+0x1e0>
   13b90:	e5d5c030 	ldrb	ip, [r5, #48]	; 0x30
   13b94:	e5d5302f 	ldrb	r3, [r5, #47]	; 0x2f
   13b98:	e1e0c00c 	mvn	ip, ip
   13b9c:	e7d21003 	ldrb	r1, [r2, r3]
   13ba0:	e6efc07c 	uxtb	ip, ip
   13ba4:	e001100c 	and	r1, r1, ip
   13ba8:	e3510000 	cmp	r1, #0
   13bac:	e7c21003 	strb	r1, [r2, r3]
   13bb0:	059f214c 	ldreq	r2, [pc, #332]	; 13d04 <OSTaskDel+0x1e4>
   13bb4:	05d5e031 	ldrbeq	lr, [r5, #49]	; 0x31
   13bb8:	05d21000 	ldrbeq	r1, [r2]
   13bbc:	01c1100e 	biceq	r1, r1, lr
   13bc0:	05c21000 	strbeq	r1, [r2]
   13bc4:	e595201c 	ldr	r2, [r5, #28]
   13bc8:	e3520000 	cmp	r2, #0
   13bcc:	0a000008 	beq	13bf4 <OSTaskDel+0xd4>
   13bd0:	e0823003 	add	r3, r2, r3
   13bd4:	e5d31008 	ldrb	r1, [r3, #8]
   13bd8:	e001c00c 	and	ip, r1, ip
   13bdc:	e35c0000 	cmp	ip, #0
   13be0:	e5c3c008 	strb	ip, [r3, #8]
   13be4:	05d51031 	ldrbeq	r1, [r5, #49]	; 0x31
   13be8:	05d23001 	ldrbeq	r3, [r2, #1]
   13bec:	01c33001 	biceq	r3, r3, r1
   13bf0:	05c23001 	strbeq	r3, [r2, #1]
   13bf4:	e5953024 	ldr	r3, [r5, #36]	; 0x24
   13bf8:	e3530000 	cmp	r3, #0
   13bfc:	0a00000a 	beq	13c2c <OSTaskDel+0x10c>
   13c00:	e5931004 	ldr	r1, [r3, #4]
   13c04:	e5932000 	ldr	r2, [r3]
   13c08:	e3510000 	cmp	r1, #0
   13c0c:	0a000033 	beq	13ce0 <OSTaskDel+0x1c0>
   13c10:	e3520000 	cmp	r2, #0
   13c14:	e5812000 	str	r2, [r1]
   13c18:	0a000000 	beq	13c20 <OSTaskDel+0x100>
   13c1c:	e5821004 	str	r1, [r2, #4]
   13c20:	e5933008 	ldr	r3, [r3, #8]
   13c24:	e3a02000 	mov	r2, #0
   13c28:	e5832024 	str	r2, [r3, #36]	; 0x24
   13c2c:	e59f70d4 	ldr	r7, [pc, #212]	; 13d08 <OSTaskDel+0x1e8>
   13c30:	e3a03000 	mov	r3, #0
   13c34:	e5d72000 	ldrb	r2, [r7]
   13c38:	e1c532ba 	strh	r3, [r5, #42]	; 0x2a
   13c3c:	e35200ff 	cmp	r2, #255	; 0xff
   13c40:	12822001 	addne	r2, r2, #1
   13c44:	e5c5302c 	strb	r3, [r5, #44]	; 0x2c
   13c48:	15c72000 	strbne	r2, [r7]
   13c4c:	ebfff26f 	bl	10610 <OS_CPU_SR_Restore>
   13c50:	ebfff266 	bl	105f0 <OS_CPU_SR_Save>
   13c54:	e5d73000 	ldrb	r3, [r7]
   13c58:	e59f20a8 	ldr	r2, [pc, #168]	; 13d08 <OSTaskDel+0x1e8>
   13c5c:	e3530000 	cmp	r3, #0
   13c60:	12433001 	subne	r3, r3, #1
   13c64:	e1a08000 	mov	r8, r0
   13c68:	e1a00005 	mov	r0, r5
   13c6c:	15c23000 	strbne	r3, [r2]
   13c70:	ebfff2d8 	bl	107d8 <OSTaskDelHook>
   13c74:	e59f2090 	ldr	r2, [pc, #144]	; 13d0c <OSTaskDel+0x1ec>
   13c78:	e3a03000 	mov	r3, #0
   13c7c:	e5d21000 	ldrb	r1, [r2]
   13c80:	e7863104 	str	r3, [r6, r4, lsl #2]
   13c84:	e5953018 	ldr	r3, [r5, #24]
   13c88:	e2411001 	sub	r1, r1, #1
   13c8c:	e5c21000 	strb	r1, [r2]
   13c90:	e5952014 	ldr	r2, [r5, #20]
   13c94:	e3530000 	cmp	r3, #0
   13c98:	15832014 	strne	r2, [r3, #20]
   13c9c:	15952014 	ldrne	r2, [r5, #20]
   13ca0:	05823018 	streq	r3, [r2, #24]
   13ca4:	15823018 	strne	r3, [r2, #24]
   13ca8:	059f1060 	ldreq	r1, [pc, #96]	; 13d10 <OSTaskDel+0x1f0>
   13cac:	e59f3060 	ldr	r3, [pc, #96]	; 13d14 <OSTaskDel+0x1f4>
   13cb0:	05812000 	streq	r2, [r1]
   13cb4:	e5932000 	ldr	r2, [r3]
   13cb8:	e1a00008 	mov	r0, r8
   13cbc:	e5852014 	str	r2, [r5, #20]
   13cc0:	e5835000 	str	r5, [r3]
   13cc4:	ebfff251 	bl	10610 <OS_CPU_SR_Restore>
   13cc8:	ebfff442 	bl	10dd8 <OS_Sched>
   13ccc:	e3a00000 	mov	r0, #0
   13cd0:	e8bd81f0 	pop	{r4, r5, r6, r7, r8, pc}
   13cd4:	ebfff24d 	bl	10610 <OS_CPU_SR_Restore>
   13cd8:	e3a0003c 	mov	r0, #60	; 0x3c
   13cdc:	e8bd81f0 	pop	{r4, r5, r6, r7, r8, pc}
   13ce0:	e593c00c 	ldr	ip, [r3, #12]
   13ce4:	e3520000 	cmp	r2, #0
   13ce8:	e58c2004 	str	r2, [ip, #4]
   13cec:	1affffca 	bne	13c1c <OSTaskDel+0xfc>
   13cf0:	eaffffca 	b	13c20 <OSTaskDel+0x100>
   13cf4:	00016851 	andeq	r6, r1, r1, asr r8
   13cf8:	00016854 	andeq	r6, r1, r4, asr r8
   13cfc:	000174c8 	andeq	r7, r1, r8, asr #9
   13d00:	00016844 	andeq	r6, r1, r4, asr #16
   13d04:	00016840 	andeq	r6, r1, r0, asr #16
   13d08:	00015ef8 	strdeq	r5, [r1], -r8
   13d0c:	000167b9 			; <UNDEFINED> instruction: 0x000167b9
   13d10:	00015f44 	andeq	r5, r1, r4, asr #30
   13d14:	000167b4 			; <UNDEFINED> instruction: 0x000167b4

00013d18 <OSTaskDelReq>:
   13d18:	e350003f 	cmp	r0, #63	; 0x3f
   13d1c:	e92d4010 	push	{r4, lr}
   13d20:	e1a04000 	mov	r4, r0
   13d24:	03a0403d 	moveq	r4, #61	; 0x3d
   13d28:	0a000004 	beq	13d40 <OSTaskDelReq+0x28>
   13d2c:	e244303f 	sub	r3, r4, #63	; 0x3f
   13d30:	e6ef3073 	uxtb	r3, r3
   13d34:	e35300bf 	cmp	r3, #191	; 0xbf
   13d38:	93a0402a 	movls	r4, #42	; 0x2a
   13d3c:	8a000001 	bhi	13d48 <OSTaskDelReq+0x30>
   13d40:	e1a00004 	mov	r0, r4
   13d44:	e8bd8010 	pop	{r4, pc}
   13d48:	e35400ff 	cmp	r4, #255	; 0xff
   13d4c:	0a00000a 	beq	13d7c <OSTaskDelReq+0x64>
   13d50:	ebfff226 	bl	105f0 <OS_CPU_SR_Save>
   13d54:	e59f3038 	ldr	r3, [pc, #56]	; 13d94 <OSTaskDelReq+0x7c>
   13d58:	e7933104 	ldr	r3, [r3, r4, lsl #2]
   13d5c:	e3530001 	cmp	r3, #1
   13d60:	83a0203e 	movhi	r2, #62	; 0x3e
   13d64:	83a04000 	movhi	r4, #0
   13d68:	93a0400b 	movls	r4, #11
   13d6c:	85c32032 	strbhi	r2, [r3, #50]	; 0x32
   13d70:	ebfff226 	bl	10610 <OS_CPU_SR_Restore>
   13d74:	e1a00004 	mov	r0, r4
   13d78:	e8bd8010 	pop	{r4, pc}
   13d7c:	ebfff21b 	bl	105f0 <OS_CPU_SR_Save>
   13d80:	e59f3010 	ldr	r3, [pc, #16]	; 13d98 <OSTaskDelReq+0x80>
   13d84:	e5933000 	ldr	r3, [r3]
   13d88:	e5d34032 	ldrb	r4, [r3, #50]	; 0x32
   13d8c:	ebfff21f 	bl	10610 <OS_CPU_SR_Restore>
   13d90:	eaffffea 	b	13d40 <OSTaskDelReq+0x28>
   13d94:	000174c8 	andeq	r7, r1, r8, asr #9
   13d98:	00016854 	andeq	r6, r1, r4, asr r8

00013d9c <OSTaskResume>:
   13d9c:	e350003e 	cmp	r0, #62	; 0x3e
   13da0:	e92d4070 	push	{r4, r5, r6, lr}
   13da4:	e1a04000 	mov	r4, r0
   13da8:	9a000001 	bls	13db4 <OSTaskResume+0x18>
   13dac:	e3a0002a 	mov	r0, #42	; 0x2a
   13db0:	e8bd8070 	pop	{r4, r5, r6, pc}
   13db4:	ebfff20d 	bl	105f0 <OS_CPU_SR_Save>
   13db8:	e59f3098 	ldr	r3, [pc, #152]	; 13e58 <OSTaskResume+0xbc>
   13dbc:	e1a01000 	mov	r1, r0
   13dc0:	e7933104 	ldr	r3, [r3, r4, lsl #2]
   13dc4:	e3530001 	cmp	r3, #1
   13dc8:	9a00000d 	bls	13e04 <OSTaskResume+0x68>
   13dcc:	e5d3202c 	ldrb	r2, [r3, #44]	; 0x2c
   13dd0:	e3120008 	tst	r2, #8
   13dd4:	0a00000d 	beq	13e10 <OSTaskResume+0x74>
   13dd8:	e20220f7 	and	r2, r2, #247	; 0xf7
   13ddc:	e3520000 	cmp	r2, #0
   13de0:	e5c3202c 	strb	r2, [r3, #44]	; 0x2c
   13de4:	1a000002 	bne	13df4 <OSTaskResume+0x58>
   13de8:	e1d342ba 	ldrh	r4, [r3, #42]	; 0x2a
   13dec:	e3540000 	cmp	r4, #0
   13df0:	0a000009 	beq	13e1c <OSTaskResume+0x80>
   13df4:	e1a00001 	mov	r0, r1
   13df8:	ebfff204 	bl	10610 <OS_CPU_SR_Restore>
   13dfc:	e3a00000 	mov	r0, #0
   13e00:	e8bd8070 	pop	{r4, r5, r6, pc}
   13e04:	ebfff201 	bl	10610 <OS_CPU_SR_Restore>
   13e08:	e3a00064 	mov	r0, #100	; 0x64
   13e0c:	e8bd8070 	pop	{r4, r5, r6, pc}
   13e10:	ebfff1fe 	bl	10610 <OS_CPU_SR_Restore>
   13e14:	e3a00065 	mov	r0, #101	; 0x65
   13e18:	e8bd8070 	pop	{r4, r5, r6, pc}
   13e1c:	e5d3202f 	ldrb	r2, [r3, #47]	; 0x2f
   13e20:	e59fc034 	ldr	ip, [pc, #52]	; 13e5c <OSTaskResume+0xc0>
   13e24:	e59f1034 	ldr	r1, [pc, #52]	; 13e60 <OSTaskResume+0xc4>
   13e28:	e5dc6000 	ldrb	r6, [ip]
   13e2c:	e7d15002 	ldrb	r5, [r1, r2]
   13e30:	e5d3e031 	ldrb	lr, [r3, #49]	; 0x31
   13e34:	e5d33030 	ldrb	r3, [r3, #48]	; 0x30
   13e38:	e186e00e 	orr	lr, r6, lr
   13e3c:	e1853003 	orr	r3, r5, r3
   13e40:	e5cce000 	strb	lr, [ip]
   13e44:	e7c13002 	strb	r3, [r1, r2]
   13e48:	ebfff1f0 	bl	10610 <OS_CPU_SR_Restore>
   13e4c:	ebfff3e1 	bl	10dd8 <OS_Sched>
   13e50:	e1a00004 	mov	r0, r4
   13e54:	e8bd8070 	pop	{r4, r5, r6, pc}
   13e58:	000174c8 	andeq	r7, r1, r8, asr #9
   13e5c:	00016840 	andeq	r6, r1, r0, asr #16
   13e60:	00016844 	andeq	r6, r1, r4, asr #16

00013e64 <OSTaskStkChk>:
   13e64:	e92d4030 	push	{r4, r5, lr}
   13e68:	e2403040 	sub	r3, r0, #64	; 0x40
   13e6c:	e6ef3073 	uxtb	r3, r3
   13e70:	e35300be 	cmp	r3, #190	; 0xbe
   13e74:	e1a04000 	mov	r4, r0
   13e78:	e24dd00c 	sub	sp, sp, #12
   13e7c:	93a0002a 	movls	r0, #42	; 0x2a
   13e80:	8a000001 	bhi	13e8c <OSTaskStkChk+0x28>
   13e84:	e28dd00c 	add	sp, sp, #12
   13e88:	e8bd8030 	pop	{r4, r5, pc}
   13e8c:	e3a03000 	mov	r3, #0
   13e90:	e5813000 	str	r3, [r1]
   13e94:	e5813004 	str	r3, [r1, #4]
   13e98:	e58d1004 	str	r1, [sp, #4]
   13e9c:	ebfff1d3 	bl	105f0 <OS_CPU_SR_Save>
   13ea0:	e35400ff 	cmp	r4, #255	; 0xff
   13ea4:	059f3094 	ldreq	r3, [pc, #148]	; 13f40 <OSTaskStkChk+0xdc>
   13ea8:	e59d1004 	ldr	r1, [sp, #4]
   13eac:	05933000 	ldreq	r3, [r3]
   13eb0:	05d3402d 	ldrbeq	r4, [r3, #45]	; 0x2d
   13eb4:	e59f3088 	ldr	r3, [pc, #136]	; 13f44 <OSTaskStkChk+0xe0>
   13eb8:	e7933104 	ldr	r3, [r3, r4, lsl #2]
   13ebc:	e3530001 	cmp	r3, #1
   13ec0:	9a000005 	bls	13edc <OSTaskStkChk+0x78>
   13ec4:	e1d321b0 	ldrh	r2, [r3, #16]
   13ec8:	e3120001 	tst	r2, #1
   13ecc:	1a000005 	bne	13ee8 <OSTaskStkChk+0x84>
   13ed0:	ebfff1ce 	bl	10610 <OS_CPU_SR_Restore>
   13ed4:	e3a00082 	mov	r0, #130	; 0x82
   13ed8:	eaffffe9 	b	13e84 <OSTaskStkChk+0x20>
   13edc:	ebfff1cb 	bl	10610 <OS_CPU_SR_Restore>
   13ee0:	e3a0000b 	mov	r0, #11
   13ee4:	eaffffe6 	b	13e84 <OSTaskStkChk+0x20>
   13ee8:	e5934008 	ldr	r4, [r3, #8]
   13eec:	e593500c 	ldr	r5, [r3, #12]
   13ef0:	e58d1004 	str	r1, [sp, #4]
   13ef4:	ebfff1c5 	bl	10610 <OS_CPU_SR_Restore>
   13ef8:	e5943000 	ldr	r3, [r4]
   13efc:	e59d1004 	ldr	r1, [sp, #4]
   13f00:	e3530000 	cmp	r3, #0
   13f04:	1a00000a 	bne	13f34 <OSTaskStkChk+0xd0>
   13f08:	e1a02004 	mov	r2, r4
   13f0c:	e5b20004 	ldr	r0, [r2, #4]!
   13f10:	e2833001 	add	r3, r3, #1
   13f14:	e3500000 	cmp	r0, #0
   13f18:	0afffffb 	beq	13f0c <OSTaskStkChk+0xa8>
   13f1c:	e1a02103 	lsl	r2, r3, #2
   13f20:	e0633005 	rsb	r3, r3, r5
   13f24:	e1a03103 	lsl	r3, r3, #2
   13f28:	e881000c 	stm	r1, {r2, r3}
   13f2c:	e3a00000 	mov	r0, #0
   13f30:	eaffffd3 	b	13e84 <OSTaskStkChk+0x20>
   13f34:	e3a02000 	mov	r2, #0
   13f38:	e1a03002 	mov	r3, r2
   13f3c:	eafffff7 	b	13f20 <OSTaskStkChk+0xbc>
   13f40:	00016854 	andeq	r6, r1, r4, asr r8
   13f44:	000174c8 	andeq	r7, r1, r8, asr #9

00013f48 <OSTaskSuspend>:
   13f48:	e350003f 	cmp	r0, #63	; 0x3f
   13f4c:	e92d4038 	push	{r3, r4, r5, lr}
   13f50:	e1a04000 	mov	r4, r0
   13f54:	0a000005 	beq	13f70 <OSTaskSuspend+0x28>
   13f58:	e240303f 	sub	r3, r0, #63	; 0x3f
   13f5c:	e6ef3073 	uxtb	r3, r3
   13f60:	e35300bf 	cmp	r3, #191	; 0xbf
   13f64:	8a000003 	bhi	13f78 <OSTaskSuspend+0x30>
   13f68:	e3a0002a 	mov	r0, #42	; 0x2a
   13f6c:	e8bd8038 	pop	{r3, r4, r5, pc}
   13f70:	e3a0005b 	mov	r0, #91	; 0x5b
   13f74:	e8bd8038 	pop	{r3, r4, r5, pc}
   13f78:	ebfff19c 	bl	105f0 <OS_CPU_SR_Save>
   13f7c:	e35400ff 	cmp	r4, #255	; 0xff
   13f80:	e59f309c 	ldr	r3, [pc, #156]	; 14024 <OSTaskSuspend+0xdc>
   13f84:	0a000022 	beq	14014 <OSTaskSuspend+0xcc>
   13f88:	e5933000 	ldr	r3, [r3]
   13f8c:	e5d3502d 	ldrb	r5, [r3, #45]	; 0x2d
   13f90:	e0553004 	subs	r3, r5, r4
   13f94:	e2735000 	rsbs	r5, r3, #0
   13f98:	e0b55003 	adcs	r5, r5, r3
   13f9c:	e59f3084 	ldr	r3, [pc, #132]	; 14028 <OSTaskSuspend+0xe0>
   13fa0:	e7933104 	ldr	r3, [r3, r4, lsl #2]
   13fa4:	e3530001 	cmp	r3, #1
   13fa8:	9a000016 	bls	14008 <OSTaskSuspend+0xc0>
   13fac:	e5d3202f 	ldrb	r2, [r3, #47]	; 0x2f
   13fb0:	e59f1074 	ldr	r1, [pc, #116]	; 1402c <OSTaskSuspend+0xe4>
   13fb4:	e5d3e030 	ldrb	lr, [r3, #48]	; 0x30
   13fb8:	e7d1c002 	ldrb	ip, [r1, r2]
   13fbc:	e1ccc00e 	bic	ip, ip, lr
   13fc0:	e35c0000 	cmp	ip, #0
   13fc4:	e7c1c002 	strb	ip, [r1, r2]
   13fc8:	059f2060 	ldreq	r2, [pc, #96]	; 14030 <OSTaskSuspend+0xe8>
   13fcc:	05d3c031 	ldrbeq	ip, [r3, #49]	; 0x31
   13fd0:	05d21000 	ldrbeq	r1, [r2]
   13fd4:	01c1100c 	biceq	r1, r1, ip
   13fd8:	05c21000 	strbeq	r1, [r2]
   13fdc:	e5d3202c 	ldrb	r2, [r3, #44]	; 0x2c
   13fe0:	e3822008 	orr	r2, r2, #8
   13fe4:	e5c3202c 	strb	r2, [r3, #44]	; 0x2c
   13fe8:	ebfff188 	bl	10610 <OS_CPU_SR_Restore>
   13fec:	e3550001 	cmp	r5, #1
   13ff0:	0a000001 	beq	13ffc <OSTaskSuspend+0xb4>
   13ff4:	e3a00000 	mov	r0, #0
   13ff8:	e8bd8038 	pop	{r3, r4, r5, pc}
   13ffc:	ebfff375 	bl	10dd8 <OS_Sched>
   14000:	e3a00000 	mov	r0, #0
   14004:	e8bd8038 	pop	{r3, r4, r5, pc}
   14008:	ebfff180 	bl	10610 <OS_CPU_SR_Restore>
   1400c:	e3a0005a 	mov	r0, #90	; 0x5a
   14010:	e8bd8038 	pop	{r3, r4, r5, pc}
   14014:	e5933000 	ldr	r3, [r3]
   14018:	e3a05001 	mov	r5, #1
   1401c:	e5d3402d 	ldrb	r4, [r3, #45]	; 0x2d
   14020:	eaffffdd 	b	13f9c <OSTaskSuspend+0x54>
   14024:	00016854 	andeq	r6, r1, r4, asr r8
   14028:	000174c8 	andeq	r7, r1, r8, asr #9
   1402c:	00016844 	andeq	r6, r1, r4, asr #16
   14030:	00016840 	andeq	r6, r1, r0, asr #16

00014034 <OSTaskQuery>:
   14034:	e92d4030 	push	{r4, r5, lr}
   14038:	e2403040 	sub	r3, r0, #64	; 0x40
   1403c:	e6ef3073 	uxtb	r3, r3
   14040:	e35300be 	cmp	r3, #190	; 0xbe
   14044:	e1a04000 	mov	r4, r0
   14048:	e24dd00c 	sub	sp, sp, #12
   1404c:	93a0002a 	movls	r0, #42	; 0x2a
   14050:	8a000001 	bhi	1405c <OSTaskQuery+0x28>
   14054:	e28dd00c 	add	sp, sp, #12
   14058:	e8bd8030 	pop	{r4, r5, pc}
   1405c:	e58d1004 	str	r1, [sp, #4]
   14060:	ebfff162 	bl	105f0 <OS_CPU_SR_Save>
   14064:	e35400ff 	cmp	r4, #255	; 0xff
   14068:	059f3048 	ldreq	r3, [pc, #72]	; 140b8 <OSTaskQuery+0x84>
   1406c:	e1a05000 	mov	r5, r0
   14070:	05933000 	ldreq	r3, [r3]
   14074:	e59d1004 	ldr	r1, [sp, #4]
   14078:	05d3402d 	ldrbeq	r4, [r3, #45]	; 0x2d
   1407c:	e59f3038 	ldr	r3, [pc, #56]	; 140bc <OSTaskQuery+0x88>
   14080:	e7933104 	ldr	r3, [r3, r4, lsl #2]
   14084:	e3530001 	cmp	r3, #1
   14088:	8a000002 	bhi	14098 <OSTaskQuery+0x64>
   1408c:	ebfff15f 	bl	10610 <OS_CPU_SR_Restore>
   14090:	e3a00029 	mov	r0, #41	; 0x29
   14094:	eaffffee 	b	14054 <OSTaskQuery+0x20>
   14098:	e1a00001 	mov	r0, r1
   1409c:	e3a02034 	mov	r2, #52	; 0x34
   140a0:	e1a01003 	mov	r1, r3
   140a4:	eb00036f 	bl	14e68 <memcpy>
   140a8:	e1a00005 	mov	r0, r5
   140ac:	ebfff157 	bl	10610 <OS_CPU_SR_Restore>
   140b0:	e3a00000 	mov	r0, #0
   140b4:	eaffffe6 	b	14054 <OSTaskQuery+0x20>
   140b8:	00016854 	andeq	r6, r1, r4, asr r8
   140bc:	000174c8 	andeq	r7, r1, r8, asr #9

000140c0 <OSTimeDly>:
   140c0:	e3500000 	cmp	r0, #0
   140c4:	012fff1e 	bxeq	lr
   140c8:	eafff393 	b	10f1c <OSTimeDly.part.1>

000140cc <OSTimeDlyHMSM>:
   140cc:	e181c000 	orr	ip, r1, r0
   140d0:	e192c00c 	orrs	ip, r2, ip
   140d4:	e92d4010 	push	{r4, lr}
   140d8:	1a000003 	bne	140ec <OSTimeDlyHMSM+0x20>
   140dc:	e3530000 	cmp	r3, #0
   140e0:	1a000005 	bne	140fc <OSTimeDlyHMSM+0x30>
   140e4:	e3a00054 	mov	r0, #84	; 0x54
   140e8:	e8bd8010 	pop	{r4, pc}
   140ec:	e351003b 	cmp	r1, #59	; 0x3b
   140f0:	9a000005 	bls	1410c <OSTimeDlyHMSM+0x40>
   140f4:	e3a00051 	mov	r0, #81	; 0x51
   140f8:	e8bd8010 	pop	{r4, pc}
   140fc:	e3530ffa 	cmp	r3, #1000	; 0x3e8
   14100:	3a000005 	bcc	1411c <OSTimeDlyHMSM+0x50>
   14104:	e3a00053 	mov	r0, #83	; 0x53
   14108:	e8bd8010 	pop	{r4, pc}
   1410c:	e352003b 	cmp	r2, #59	; 0x3b
   14110:	9afffff9 	bls	140fc <OSTimeDlyHMSM+0x30>
   14114:	e3a00052 	mov	r0, #82	; 0x52
   14118:	e8bd8010 	pop	{r4, pc}
   1411c:	e0611201 	rsb	r1, r1, r1, lsl #4
   14120:	e0822101 	add	r2, r2, r1, lsl #2
   14124:	e3a0cee1 	mov	ip, #3600	; 0xe10
   14128:	e3a01ffa 	mov	r1, #1000	; 0x3e8
   1412c:	e020209c 	mla	r0, ip, r0, r2
   14130:	e0030391 	mul	r3, r1, r3
   14134:	e59f2044 	ldr	r2, [pc, #68]	; 14180 <OSTimeDlyHMSM+0xb4>
   14138:	e0010091 	mul	r1, r1, r0
   1413c:	e080c392 	umull	ip, r0, r2, r3
   14140:	e0810320 	add	r0, r1, r0, lsr #6
   14144:	e1a04820 	lsr	r4, r0, #16
   14148:	e6ff0070 	uxth	r0, r0
   1414c:	ebffffdb 	bl	140c0 <OSTimeDly>
   14150:	e3540000 	cmp	r4, #0
   14154:	0a000007 	beq	14178 <OSTimeDlyHMSM+0xac>
   14158:	e3a00902 	mov	r0, #32768	; 0x8000
   1415c:	e2444001 	sub	r4, r4, #1
   14160:	ebfff36d 	bl	10f1c <OSTimeDly.part.1>
   14164:	e6ff4074 	uxth	r4, r4
   14168:	e3a00902 	mov	r0, #32768	; 0x8000
   1416c:	ebfff36a 	bl	10f1c <OSTimeDly.part.1>
   14170:	e3540000 	cmp	r4, #0
   14174:	1afffff7 	bne	14158 <OSTimeDlyHMSM+0x8c>
   14178:	e3a00000 	mov	r0, #0
   1417c:	e8bd8010 	pop	{r4, pc}
   14180:	10624dd3 	ldrdne	r4, [r2], #-211	; 0xffffff2d	; <UNPREDICTABLE>

00014184 <OSTimeDlyResume>:
   14184:	e350003e 	cmp	r0, #62	; 0x3e
   14188:	e92d4070 	push	{r4, r5, r6, lr}
   1418c:	e1a04000 	mov	r4, r0
   14190:	9a000001 	bls	1419c <OSTimeDlyResume+0x18>
   14194:	e3a0002a 	mov	r0, #42	; 0x2a
   14198:	e8bd8070 	pop	{r4, r5, r6, pc}
   1419c:	ebfff113 	bl	105f0 <OS_CPU_SR_Save>
   141a0:	e59f308c 	ldr	r3, [pc, #140]	; 14234 <OSTimeDlyResume+0xb0>
   141a4:	e7933104 	ldr	r3, [r3, r4, lsl #2]
   141a8:	e3530000 	cmp	r3, #0
   141ac:	0a00001d 	beq	14228 <OSTimeDlyResume+0xa4>
   141b0:	e1d322ba 	ldrh	r2, [r3, #42]	; 0x2a
   141b4:	e3520000 	cmp	r2, #0
   141b8:	0a000014 	beq	14210 <OSTimeDlyResume+0x8c>
   141bc:	e5d3202c 	ldrb	r2, [r3, #44]	; 0x2c
   141c0:	e3a04000 	mov	r4, #0
   141c4:	e2022008 	and	r2, r2, #8
   141c8:	e21250ff 	ands	r5, r2, #255	; 0xff
   141cc:	e1c342ba 	strh	r4, [r3, #42]	; 0x2a
   141d0:	1a000011 	bne	1421c <OSTimeDlyResume+0x98>
   141d4:	e5d3202f 	ldrb	r2, [r3, #47]	; 0x2f
   141d8:	e59fc058 	ldr	ip, [pc, #88]	; 14238 <OSTimeDlyResume+0xb4>
   141dc:	e59f1058 	ldr	r1, [pc, #88]	; 1423c <OSTimeDlyResume+0xb8>
   141e0:	e5dc6000 	ldrb	r6, [ip]
   141e4:	e7d14002 	ldrb	r4, [r1, r2]
   141e8:	e5d3e031 	ldrb	lr, [r3, #49]	; 0x31
   141ec:	e5d33030 	ldrb	r3, [r3, #48]	; 0x30
   141f0:	e186e00e 	orr	lr, r6, lr
   141f4:	e1843003 	orr	r3, r4, r3
   141f8:	e5cce000 	strb	lr, [ip]
   141fc:	e7c13002 	strb	r3, [r1, r2]
   14200:	ebfff102 	bl	10610 <OS_CPU_SR_Restore>
   14204:	ebfff2f3 	bl	10dd8 <OS_Sched>
   14208:	e1a00005 	mov	r0, r5
   1420c:	e8bd8070 	pop	{r4, r5, r6, pc}
   14210:	ebfff0fe 	bl	10610 <OS_CPU_SR_Restore>
   14214:	e3a00050 	mov	r0, #80	; 0x50
   14218:	e8bd8070 	pop	{r4, r5, r6, pc}
   1421c:	ebfff0fb 	bl	10610 <OS_CPU_SR_Restore>
   14220:	e1a00004 	mov	r0, r4
   14224:	e8bd8070 	pop	{r4, r5, r6, pc}
   14228:	ebfff0f8 	bl	10610 <OS_CPU_SR_Restore>
   1422c:	e3a0000b 	mov	r0, #11
   14230:	e8bd8070 	pop	{r4, r5, r6, pc}
   14234:	000174c8 	andeq	r7, r1, r8, asr #9
   14238:	00016840 	andeq	r6, r1, r0, asr #16
   1423c:	00016844 	andeq	r6, r1, r4, asr #16

00014240 <OSTimeGet>:
   14240:	e92d4010 	push	{r4, lr}
   14244:	ebfff0e9 	bl	105f0 <OS_CPU_SR_Save>
   14248:	e59f300c 	ldr	r3, [pc, #12]	; 1425c <OSTimeGet+0x1c>
   1424c:	e5934000 	ldr	r4, [r3]
   14250:	ebfff0ee 	bl	10610 <OS_CPU_SR_Restore>
   14254:	e1a00004 	mov	r0, r4
   14258:	e8bd8010 	pop	{r4, pc}
   1425c:	00016858 	andeq	r6, r1, r8, asr r8

00014260 <OSTimeSet>:
   14260:	e92d4010 	push	{r4, lr}
   14264:	e1a04000 	mov	r4, r0
   14268:	ebfff0e0 	bl	105f0 <OS_CPU_SR_Save>
   1426c:	e59f3008 	ldr	r3, [pc, #8]	; 1427c <OSTimeSet+0x1c>
   14270:	e5834000 	str	r4, [r3]
   14274:	e8bd4010 	pop	{r4, lr}
   14278:	eafff0e4 	b	10610 <OS_CPU_SR_Restore>
   1427c:	00016858 	andeq	r6, r1, r8, asr r8

00014280 <main>:
   14280:	e92d4800 	push	{fp, lr}
   14284:	e28db004 	add	fp, sp, #4
   14288:	ebffef9f 	bl	1010c <uart_init>
   1428c:	ebfff03a 	bl	1037c <InitInterruptController>
   14290:	ebfff06e 	bl	10450 <DisableInterrupts>
   14294:	ebffeff4 	bl	1026c <timer_init>
   14298:	ebfffd7d 	bl	13894 <OSInit>
   1429c:	e59f0028 	ldr	r0, [pc, #40]	; 142cc <main+0x4c>
   142a0:	e3a01000 	mov	r1, #0
   142a4:	e59f2024 	ldr	r2, [pc, #36]	; 142d0 <main+0x50>
   142a8:	e3a03005 	mov	r3, #5
   142ac:	ebfffcfa 	bl	1369c <OSTaskCreate>
   142b0:	e59f001c 	ldr	r0, [pc, #28]	; 142d4 <main+0x54>
   142b4:	e3a01000 	mov	r1, #0
   142b8:	e59f2018 	ldr	r2, [pc, #24]	; 142d8 <main+0x58>
   142bc:	e3a03006 	mov	r3, #6
   142c0:	ebfffcf5 	bl	1369c <OSTaskCreate>
   142c4:	ebfff202 	bl	10ad4 <OSStart>
   142c8:	eafffffe 	b	142c8 <main+0x48>
   142cc:	00014920 	andeq	r4, r1, r0, lsr #18
   142d0:	00018568 	andeq	r8, r1, r8, ror #10
   142d4:	000142dc 	ldrdeq	r4, [r1], -ip
   142d8:	00019508 	andeq	r9, r1, r8, lsl #10

000142dc <userApp2>:
   142dc:	e92d4800 	push	{fp, lr}
   142e0:	e28db004 	add	fp, sp, #4
   142e4:	e24dd008 	sub	sp, sp, #8
   142e8:	e50b0008 	str	r0, [fp, #-8]
   142ec:	e59f306c 	ldr	r3, [pc, #108]	; 14360 <userApp2+0x84>
   142f0:	e5933000 	ldr	r3, [r3]
   142f4:	e2833004 	add	r3, r3, #4
   142f8:	e59f2060 	ldr	r2, [pc, #96]	; 14360 <userApp2+0x84>
   142fc:	e5922000 	ldr	r2, [r2]
   14300:	e2822004 	add	r2, r2, #4
   14304:	e5922000 	ldr	r2, [r2]
   14308:	e3c22707 	bic	r2, r2, #1835008	; 0x1c0000
   1430c:	e5832000 	str	r2, [r3]
   14310:	e59f3048 	ldr	r3, [pc, #72]	; 14360 <userApp2+0x84>
   14314:	e5933000 	ldr	r3, [r3]
   14318:	e2833004 	add	r3, r3, #4
   1431c:	e59f203c 	ldr	r2, [pc, #60]	; 14360 <userApp2+0x84>
   14320:	e5922000 	ldr	r2, [r2]
   14324:	e2822004 	add	r2, r2, #4
   14328:	e5922000 	ldr	r2, [r2]
   1432c:	e3822701 	orr	r2, r2, #262144	; 0x40000
   14330:	e5832000 	str	r2, [r3]
   14334:	eb000079 	bl	14520 <read_dht11_dat>
   14338:	e59f0024 	ldr	r0, [pc, #36]	; 14364 <userApp2+0x88>
   1433c:	e3a01801 	mov	r1, #65536	; 0x10000
   14340:	ebffef35 	bl	1001c <PUT32>
   14344:	e3a00ffa 	mov	r0, #1000	; 0x3e8
   14348:	ebffff5c 	bl	140c0 <OSTimeDly>
   1434c:	e59f0014 	ldr	r0, [pc, #20]	; 14368 <userApp2+0x8c>
   14350:	ebffefb0 	bl	10218 <uart_string>
   14354:	e3a00ffa 	mov	r0, #1000	; 0x3e8
   14358:	ebffff58 	bl	140c0 <OSTimeDly>
   1435c:	eafffff4 	b	14334 <userApp2+0x58>
   14360:	00015c18 	andeq	r5, r1, r8, lsl ip
   14364:	20200028 	eorcs	r0, r0, r8, lsr #32
   14368:	00015bd4 	ldrdeq	r5, [r1], -r4

0001436c <wtf_delay>:
   1436c:	e52db004 	push	{fp}		; (str fp, [sp, #-4]!)
   14370:	e28db000 	add	fp, sp, #0
   14374:	e24dd014 	sub	sp, sp, #20
   14378:	e50b0010 	str	r0, [fp, #-16]
   1437c:	e3a03000 	mov	r3, #0
   14380:	e50b3008 	str	r3, [fp, #-8]
   14384:	e3a03000 	mov	r3, #0
   14388:	e50b300c 	str	r3, [fp, #-12]
   1438c:	ea000005 	b	143a8 <wtf_delay+0x3c>
   14390:	e51b3008 	ldr	r3, [fp, #-8]
   14394:	e2833001 	add	r3, r3, #1
   14398:	e50b3008 	str	r3, [fp, #-8]
   1439c:	e51b300c 	ldr	r3, [fp, #-12]
   143a0:	e2833001 	add	r3, r3, #1
   143a4:	e50b300c 	str	r3, [fp, #-12]
   143a8:	e51b2010 	ldr	r2, [fp, #-16]
   143ac:	e1a03002 	mov	r3, r2
   143b0:	e1a03083 	lsl	r3, r3, #1
   143b4:	e0832002 	add	r2, r3, r2
   143b8:	e51b300c 	ldr	r3, [fp, #-12]
   143bc:	e1520003 	cmp	r2, r3
   143c0:	8afffff2 	bhi	14390 <wtf_delay+0x24>
   143c4:	e51b3008 	ldr	r3, [fp, #-8]
   143c8:	e1a00003 	mov	r0, r3
   143cc:	e28bd000 	add	sp, fp, #0
   143d0:	e8bd0800 	ldmfd	sp!, {fp}
   143d4:	e12fff1e 	bx	lr

000143d8 <digitalRead>:
   143d8:	e52db004 	push	{fp}		; (str fp, [sp, #-4]!)
   143dc:	e28db000 	add	fp, sp, #0
   143e0:	e24dd014 	sub	sp, sp, #20
   143e4:	e50b0010 	str	r0, [fp, #-16]
   143e8:	e51b3010 	ldr	r3, [fp, #-16]
   143ec:	e203303f 	and	r3, r3, #63	; 0x3f
   143f0:	e50b3010 	str	r3, [fp, #-16]
   143f4:	e51b3010 	ldr	r3, [fp, #-16]
   143f8:	e353001f 	cmp	r3, #31
   143fc:	ca000002 	bgt	1440c <digitalRead+0x34>
   14400:	e59f3058 	ldr	r3, [pc, #88]	; 14460 <digitalRead+0x88>
   14404:	e50b3008 	str	r3, [fp, #-8]
   14408:	ea000001 	b	14414 <digitalRead+0x3c>
   1440c:	e59f3050 	ldr	r3, [pc, #80]	; 14464 <digitalRead+0x8c>
   14410:	e50b3008 	str	r3, [fp, #-8]
   14414:	e51b3010 	ldr	r3, [fp, #-16]
   14418:	e203301f 	and	r3, r3, #31
   1441c:	e50b3010 	str	r3, [fp, #-16]
   14420:	e51b3008 	ldr	r3, [fp, #-8]
   14424:	e5932000 	ldr	r2, [r3]
   14428:	e59f3038 	ldr	r3, [pc, #56]	; 14468 <digitalRead+0x90>
   1442c:	e5933000 	ldr	r3, [r3]
   14430:	e0023003 	and	r3, r2, r3
   14434:	e50b300c 	str	r3, [fp, #-12]
   14438:	e51b300c 	ldr	r3, [fp, #-12]
   1443c:	e3530000 	cmp	r3, #0
   14440:	0a000001 	beq	1444c <digitalRead+0x74>
   14444:	e3a03001 	mov	r3, #1
   14448:	ea000000 	b	14450 <digitalRead+0x78>
   1444c:	e3a03000 	mov	r3, #0
   14450:	e1a00003 	mov	r0, r3
   14454:	e28bd000 	add	sp, fp, #0
   14458:	e8bd0800 	ldmfd	sp!, {fp}
   1445c:	e12fff1e 	bx	lr
   14460:	20200034 	eorcs	r0, r0, r4, lsr r0
   14464:	20200038 	eorcs	r0, r0, r8, lsr r0
   14468:	00015c1c 	andeq	r5, r1, ip, lsl ip

0001446c <print_dht>:
   1446c:	e92d4800 	push	{fp, lr}
   14470:	e28db004 	add	fp, sp, #4
   14474:	e24dd008 	sub	sp, sp, #8
   14478:	e59f3094 	ldr	r3, [pc, #148]	; 14514 <print_dht+0xa8>
   1447c:	e50b3008 	str	r3, [fp, #-8]
   14480:	e59f3090 	ldr	r3, [pc, #144]	; 14518 <print_dht+0xac>
   14484:	e5933000 	ldr	r3, [r3]
   14488:	e3530006 	cmp	r3, #6
   1448c:	8a000010 	bhi	144d4 <print_dht+0x68>
   14490:	e59f3080 	ldr	r3, [pc, #128]	; 14518 <print_dht+0xac>
   14494:	e5933000 	ldr	r3, [r3]
   14498:	e2832001 	add	r2, r3, #1
   1449c:	e59f3074 	ldr	r3, [pc, #116]	; 14518 <print_dht+0xac>
   144a0:	e5832000 	str	r2, [r3]
   144a4:	e51b3008 	ldr	r3, [fp, #-8]
   144a8:	e5932000 	ldr	r2, [r3]
   144ac:	e59f3068 	ldr	r3, [pc, #104]	; 1451c <print_dht+0xb0>
   144b0:	e5933000 	ldr	r3, [r3]
   144b4:	e0023003 	and	r3, r2, r3
   144b8:	e3530000 	cmp	r3, #0
   144bc:	03a03000 	moveq	r3, #0
   144c0:	13a03001 	movne	r3, #1
   144c4:	e6ef3073 	uxtb	r3, r3
   144c8:	e1a00003 	mov	r0, r3
   144cc:	ebffeef8 	bl	100b4 <hexstrings>
   144d0:	ea00000d 	b	1450c <print_dht+0xa0>
   144d4:	e59f303c 	ldr	r3, [pc, #60]	; 14518 <print_dht+0xac>
   144d8:	e3a02000 	mov	r2, #0
   144dc:	e5832000 	str	r2, [r3]
   144e0:	e51b3008 	ldr	r3, [fp, #-8]
   144e4:	e5932000 	ldr	r2, [r3]
   144e8:	e59f302c 	ldr	r3, [pc, #44]	; 1451c <print_dht+0xb0>
   144ec:	e5933000 	ldr	r3, [r3]
   144f0:	e0023003 	and	r3, r2, r3
   144f4:	e3530000 	cmp	r3, #0
   144f8:	03a03000 	moveq	r3, #0
   144fc:	13a03001 	movne	r3, #1
   14500:	e6ef3073 	uxtb	r3, r3
   14504:	e1a00003 	mov	r0, r3
   14508:	ebffeef8 	bl	100f0 <hexstring>
   1450c:	e24bd004 	sub	sp, fp, #4
   14510:	e8bd8800 	pop	{fp, pc}
   14514:	20200034 	eorcs	r0, r0, r4, lsr r0
   14518:	00015cb4 			; <UNDEFINED> instruction: 0x00015cb4
   1451c:	00015c1c 	andeq	r5, r1, ip, lsl ip

00014520 <read_dht11_dat>:
   14520:	e92d4800 	push	{fp, lr}
   14524:	e28db004 	add	fp, sp, #4
   14528:	e24dd018 	sub	sp, sp, #24
   1452c:	e3a03001 	mov	r3, #1
   14530:	e54b3005 	strb	r3, [fp, #-5]
   14534:	e3a03000 	mov	r3, #0
   14538:	e54b3006 	strb	r3, [fp, #-6]
   1453c:	e3a03000 	mov	r3, #0
   14540:	e54b3007 	strb	r3, [fp, #-7]
   14544:	e59f3344 	ldr	r3, [pc, #836]	; 14890 <read_dht11_dat+0x370>
   14548:	e50b3010 	str	r3, [fp, #-16]
   1454c:	e3a03c02 	mov	r3, #512	; 0x200
   14550:	e50b3014 	str	r3, [fp, #-20]	; 0xffffffec
   14554:	e59f3338 	ldr	r3, [pc, #824]	; 14894 <read_dht11_dat+0x374>
   14558:	e3a02000 	mov	r2, #0
   1455c:	e5832010 	str	r2, [r3, #16]
   14560:	e59f332c 	ldr	r3, [pc, #812]	; 14894 <read_dht11_dat+0x374>
   14564:	e5932010 	ldr	r2, [r3, #16]
   14568:	e59f3324 	ldr	r3, [pc, #804]	; 14894 <read_dht11_dat+0x374>
   1456c:	e583200c 	str	r2, [r3, #12]
   14570:	e59f331c 	ldr	r3, [pc, #796]	; 14894 <read_dht11_dat+0x374>
   14574:	e593200c 	ldr	r2, [r3, #12]
   14578:	e59f3314 	ldr	r3, [pc, #788]	; 14894 <read_dht11_dat+0x374>
   1457c:	e5832008 	str	r2, [r3, #8]
   14580:	e59f330c 	ldr	r3, [pc, #780]	; 14894 <read_dht11_dat+0x374>
   14584:	e5932008 	ldr	r2, [r3, #8]
   14588:	e59f3304 	ldr	r3, [pc, #772]	; 14894 <read_dht11_dat+0x374>
   1458c:	e5832004 	str	r2, [r3, #4]
   14590:	e59f32fc 	ldr	r3, [pc, #764]	; 14894 <read_dht11_dat+0x374>
   14594:	e5932004 	ldr	r2, [r3, #4]
   14598:	e59f32f4 	ldr	r3, [pc, #756]	; 14894 <read_dht11_dat+0x374>
   1459c:	e5832000 	str	r2, [r3]
   145a0:	e59f32f0 	ldr	r3, [pc, #752]	; 14898 <read_dht11_dat+0x378>
   145a4:	e5933000 	ldr	r3, [r3]
   145a8:	e59f22e8 	ldr	r2, [pc, #744]	; 14898 <read_dht11_dat+0x378>
   145ac:	e5922000 	ldr	r2, [r2]
   145b0:	e5922000 	ldr	r2, [r2]
   145b4:	e3c2230e 	bic	r2, r2, #939524096	; 0x38000000
   145b8:	e5832000 	str	r2, [r3]
   145bc:	e59f32d4 	ldr	r3, [pc, #724]	; 14898 <read_dht11_dat+0x378>
   145c0:	e5933000 	ldr	r3, [r3]
   145c4:	e59f22cc 	ldr	r2, [pc, #716]	; 14898 <read_dht11_dat+0x378>
   145c8:	e5922000 	ldr	r2, [r2]
   145cc:	e5922000 	ldr	r2, [r2]
   145d0:	e3822302 	orr	r2, r2, #134217728	; 0x8000000
   145d4:	e5832000 	str	r2, [r3]
   145d8:	e59f32b8 	ldr	r3, [pc, #696]	; 14898 <read_dht11_dat+0x378>
   145dc:	e5933000 	ldr	r3, [r3]
   145e0:	e2833028 	add	r3, r3, #40	; 0x28
   145e4:	e51b2014 	ldr	r2, [fp, #-20]	; 0xffffffec
   145e8:	e5832000 	str	r2, [r3]
   145ec:	e3a03000 	mov	r3, #0
   145f0:	e50b300c 	str	r3, [fp, #-12]
   145f4:	e51b300c 	ldr	r3, [fp, #-12]
   145f8:	e3530002 	cmp	r3, #2
   145fc:	0a000005 	beq	14618 <read_dht11_dat+0xf8>
   14600:	e3a0000a 	mov	r0, #10
   14604:	ebfffead 	bl	140c0 <OSTimeDly>
   14608:	e51b300c 	ldr	r3, [fp, #-12]
   1460c:	e2833001 	add	r3, r3, #1
   14610:	e50b300c 	str	r3, [fp, #-12]
   14614:	eafffff6 	b	145f4 <read_dht11_dat+0xd4>
   14618:	e1a00000 	nop			; (mov r0, r0)
   1461c:	e59f3274 	ldr	r3, [pc, #628]	; 14898 <read_dht11_dat+0x378>
   14620:	e5933000 	ldr	r3, [r3]
   14624:	e283301c 	add	r3, r3, #28
   14628:	e51b2014 	ldr	r2, [fp, #-20]	; 0xffffffec
   1462c:	e5832000 	str	r2, [r3]
   14630:	e3a00028 	mov	r0, #40	; 0x28
   14634:	ebffff4c 	bl	1436c <wtf_delay>
   14638:	e59f3258 	ldr	r3, [pc, #600]	; 14898 <read_dht11_dat+0x378>
   1463c:	e5933000 	ldr	r3, [r3]
   14640:	e59f2250 	ldr	r2, [pc, #592]	; 14898 <read_dht11_dat+0x378>
   14644:	e5922000 	ldr	r2, [r2]
   14648:	e5922000 	ldr	r2, [r2]
   1464c:	e3c2230e 	bic	r2, r2, #939524096	; 0x38000000
   14650:	e5832000 	str	r2, [r3]
   14654:	ebffef7d 	bl	10450 <DisableInterrupts>
   14658:	e3a03000 	mov	r3, #0
   1465c:	e54b3008 	strb	r3, [fp, #-8]
   14660:	ea00003e 	b	14760 <read_dht11_dat+0x240>
   14664:	e3a03000 	mov	r3, #0
   14668:	e54b3006 	strb	r3, [fp, #-6]
   1466c:	ea000007 	b	14690 <read_dht11_dat+0x170>
   14670:	e55b3006 	ldrb	r3, [fp, #-6]
   14674:	e2833001 	add	r3, r3, #1
   14678:	e54b3006 	strb	r3, [fp, #-6]
   1467c:	e3a00001 	mov	r0, #1
   14680:	ebffff39 	bl	1436c <wtf_delay>
   14684:	e55b3006 	ldrb	r3, [fp, #-6]
   14688:	e35300ff 	cmp	r3, #255	; 0xff
   1468c:	0a000006 	beq	146ac <read_dht11_dat+0x18c>
   14690:	e3a00009 	mov	r0, #9
   14694:	ebffff4f 	bl	143d8 <digitalRead>
   14698:	e1a03000 	mov	r3, r0
   1469c:	e55b2005 	ldrb	r2, [fp, #-5]
   146a0:	e1520003 	cmp	r2, r3
   146a4:	0afffff1 	beq	14670 <read_dht11_dat+0x150>
   146a8:	ea000000 	b	146b0 <read_dht11_dat+0x190>
   146ac:	e1a00000 	nop			; (mov r0, r0)
   146b0:	e3a00009 	mov	r0, #9
   146b4:	ebffff47 	bl	143d8 <digitalRead>
   146b8:	e1a03000 	mov	r3, r0
   146bc:	e54b3005 	strb	r3, [fp, #-5]
   146c0:	e55b3006 	ldrb	r3, [fp, #-6]
   146c4:	e35300ff 	cmp	r3, #255	; 0xff
   146c8:	0a000028 	beq	14770 <read_dht11_dat+0x250>
   146cc:	e55b3008 	ldrb	r3, [fp, #-8]
   146d0:	e3530003 	cmp	r3, #3
   146d4:	9a00001e 	bls	14754 <read_dht11_dat+0x234>
   146d8:	e55b3008 	ldrb	r3, [fp, #-8]
   146dc:	e2033001 	and	r3, r3, #1
   146e0:	e6ef3073 	uxtb	r3, r3
   146e4:	e3530000 	cmp	r3, #0
   146e8:	1a000019 	bne	14754 <read_dht11_dat+0x234>
   146ec:	e55b3007 	ldrb	r3, [fp, #-7]
   146f0:	e1a031a3 	lsr	r3, r3, #3
   146f4:	e6ef3073 	uxtb	r3, r3
   146f8:	e1a02003 	mov	r2, r3
   146fc:	e1a01003 	mov	r1, r3
   14700:	e59f318c 	ldr	r3, [pc, #396]	; 14894 <read_dht11_dat+0x374>
   14704:	e7933101 	ldr	r3, [r3, r1, lsl #2]
   14708:	e1a01083 	lsl	r1, r3, #1
   1470c:	e59f3180 	ldr	r3, [pc, #384]	; 14894 <read_dht11_dat+0x374>
   14710:	e7831102 	str	r1, [r3, r2, lsl #2]
   14714:	e55b3006 	ldrb	r3, [fp, #-6]
   14718:	e3530010 	cmp	r3, #16
   1471c:	9a000009 	bls	14748 <read_dht11_dat+0x228>
   14720:	e55b3007 	ldrb	r3, [fp, #-7]
   14724:	e1a031a3 	lsr	r3, r3, #3
   14728:	e6ef3073 	uxtb	r3, r3
   1472c:	e1a02003 	mov	r2, r3
   14730:	e1a01003 	mov	r1, r3
   14734:	e59f3158 	ldr	r3, [pc, #344]	; 14894 <read_dht11_dat+0x374>
   14738:	e7933101 	ldr	r3, [r3, r1, lsl #2]
   1473c:	e3831001 	orr	r1, r3, #1
   14740:	e59f314c 	ldr	r3, [pc, #332]	; 14894 <read_dht11_dat+0x374>
   14744:	e7831102 	str	r1, [r3, r2, lsl #2]
   14748:	e55b3007 	ldrb	r3, [fp, #-7]
   1474c:	e2833001 	add	r3, r3, #1
   14750:	e54b3007 	strb	r3, [fp, #-7]
   14754:	e55b3008 	ldrb	r3, [fp, #-8]
   14758:	e2833001 	add	r3, r3, #1
   1475c:	e54b3008 	strb	r3, [fp, #-8]
   14760:	e55b3008 	ldrb	r3, [fp, #-8]
   14764:	e3530054 	cmp	r3, #84	; 0x54
   14768:	9affffbd 	bls	14664 <read_dht11_dat+0x144>
   1476c:	ea000000 	b	14774 <read_dht11_dat+0x254>
   14770:	e1a00000 	nop			; (mov r0, r0)
   14774:	ebffef30 	bl	1043c <EnableInterrupts>
   14778:	e55b3007 	ldrb	r3, [fp, #-7]
   1477c:	e3530027 	cmp	r3, #39	; 0x27
   14780:	9a00003e 	bls	14880 <read_dht11_dat+0x360>
   14784:	e59f3108 	ldr	r3, [pc, #264]	; 14894 <read_dht11_dat+0x374>
   14788:	e5932010 	ldr	r2, [r3, #16]
   1478c:	e59f3100 	ldr	r3, [pc, #256]	; 14894 <read_dht11_dat+0x374>
   14790:	e5931000 	ldr	r1, [r3]
   14794:	e59f30f8 	ldr	r3, [pc, #248]	; 14894 <read_dht11_dat+0x374>
   14798:	e5933004 	ldr	r3, [r3, #4]
   1479c:	e0811003 	add	r1, r1, r3
   147a0:	e59f30ec 	ldr	r3, [pc, #236]	; 14894 <read_dht11_dat+0x374>
   147a4:	e5933008 	ldr	r3, [r3, #8]
   147a8:	e0811003 	add	r1, r1, r3
   147ac:	e59f30e0 	ldr	r3, [pc, #224]	; 14894 <read_dht11_dat+0x374>
   147b0:	e593300c 	ldr	r3, [r3, #12]
   147b4:	e0813003 	add	r3, r1, r3
   147b8:	e6ef3073 	uxtb	r3, r3
   147bc:	e1520003 	cmp	r2, r3
   147c0:	1a00002e 	bne	14880 <read_dht11_dat+0x360>
   147c4:	e59f30c8 	ldr	r3, [pc, #200]	; 14894 <read_dht11_dat+0x374>
   147c8:	e5933008 	ldr	r3, [r3, #8]
   147cc:	e1a00003 	mov	r0, r3
   147d0:	eb000335 	bl	154ac <__aeabi_i2d>
   147d4:	e1a02000 	mov	r2, r0
   147d8:	e1a03001 	mov	r3, r1
   147dc:	e1a00002 	mov	r0, r2
   147e0:	e1a01003 	mov	r1, r3
   147e4:	e3a02000 	mov	r2, #0
   147e8:	e59f30ac 	ldr	r3, [pc, #172]	; 1489c <read_dht11_dat+0x37c>
   147ec:	eb000365 	bl	15588 <__aeabi_dmul>
   147f0:	e1a02000 	mov	r2, r0
   147f4:	e1a03001 	mov	r3, r1
   147f8:	e1a00002 	mov	r0, r2
   147fc:	e1a01003 	mov	r1, r3
   14800:	e3a02000 	mov	r2, #0
   14804:	e59f3094 	ldr	r3, [pc, #148]	; 148a0 <read_dht11_dat+0x380>
   14808:	eb000402 	bl	15818 <__aeabi_ddiv>
   1480c:	e1a02000 	mov	r2, r0
   14810:	e1a03001 	mov	r3, r1
   14814:	e1a00002 	mov	r0, r2
   14818:	e1a01003 	mov	r1, r3
   1481c:	e3a02000 	mov	r2, #0
   14820:	e59f307c 	ldr	r3, [pc, #124]	; 148a4 <read_dht11_dat+0x384>
   14824:	eb000253 	bl	15178 <__adddf3>
   14828:	e1a02000 	mov	r2, r0
   1482c:	e1a03001 	mov	r3, r1
   14830:	e1a00002 	mov	r0, r2
   14834:	e1a01003 	mov	r1, r3
   14838:	eb000479 	bl	15a24 <__aeabi_d2f>
   1483c:	e1a03000 	mov	r3, r0
   14840:	e50b3018 	str	r3, [fp, #-24]	; 0xffffffe8
   14844:	e59f005c 	ldr	r0, [pc, #92]	; 148a8 <read_dht11_dat+0x388>
   14848:	ebffee72 	bl	10218 <uart_string>
   1484c:	e59f3040 	ldr	r3, [pc, #64]	; 14894 <read_dht11_dat+0x374>
   14850:	e5933000 	ldr	r3, [r3]
   14854:	e1a00003 	mov	r0, r3
   14858:	ebffee15 	bl	100b4 <hexstrings>
   1485c:	e59f0048 	ldr	r0, [pc, #72]	; 148ac <read_dht11_dat+0x38c>
   14860:	ebffee6c 	bl	10218 <uart_string>
   14864:	e59f3028 	ldr	r3, [pc, #40]	; 14894 <read_dht11_dat+0x374>
   14868:	e5933008 	ldr	r3, [r3, #8]
   1486c:	e1a00003 	mov	r0, r3
   14870:	ebffee0f 	bl	100b4 <hexstrings>
   14874:	e59f0030 	ldr	r0, [pc, #48]	; 148ac <read_dht11_dat+0x38c>
   14878:	ebffee66 	bl	10218 <uart_string>
   1487c:	ea000001 	b	14888 <read_dht11_dat+0x368>
   14880:	e59f0028 	ldr	r0, [pc, #40]	; 148b0 <read_dht11_dat+0x390>
   14884:	ebffee63 	bl	10218 <uart_string>
   14888:	e24bd004 	sub	sp, fp, #4
   1488c:	e8bd8800 	pop	{fp, pc}
   14890:	20200034 	eorcs	r0, r0, r4, lsr r0
   14894:	00015ca0 	andeq	r5, r1, r0, lsr #25
   14898:	00015c18 	andeq	r5, r1, r8, lsl ip
   1489c:	40220000 	eormi	r0, r2, r0
   148a0:	40140000 	andsmi	r0, r4, r0
   148a4:	40400000 	submi	r0, r0, r0
   148a8:	00015be0 	andeq	r5, r1, r0, ror #23
   148ac:	00015bf4 	strdeq	r5, [r1], -r4
   148b0:	00015bf8 	strdeq	r5, [r1], -r8

000148b4 <digitalWrite>:
   148b4:	e52db004 	push	{fp}		; (str fp, [sp, #-4]!)
   148b8:	e28db000 	add	fp, sp, #0
   148bc:	e24dd00c 	sub	sp, sp, #12
   148c0:	e50b0008 	str	r0, [fp, #-8]
   148c4:	e50b100c 	str	r1, [fp, #-12]
   148c8:	e51b300c 	ldr	r3, [fp, #-12]
   148cc:	e3530000 	cmp	r3, #0
   148d0:	1a000007 	bne	148f4 <digitalWrite+0x40>
   148d4:	e59f3040 	ldr	r3, [pc, #64]	; 1491c <digitalWrite+0x68>
   148d8:	e5933000 	ldr	r3, [r3]
   148dc:	e2833028 	add	r3, r3, #40	; 0x28
   148e0:	e3a01001 	mov	r1, #1
   148e4:	e51b2008 	ldr	r2, [fp, #-8]
   148e8:	e1a02211 	lsl	r2, r1, r2
   148ec:	e5832000 	str	r2, [r3]
   148f0:	ea000006 	b	14910 <digitalWrite+0x5c>
   148f4:	e59f3020 	ldr	r3, [pc, #32]	; 1491c <digitalWrite+0x68>
   148f8:	e5933000 	ldr	r3, [r3]
   148fc:	e283301c 	add	r3, r3, #28
   14900:	e3a01001 	mov	r1, #1
   14904:	e51b2008 	ldr	r2, [fp, #-8]
   14908:	e1a02211 	lsl	r2, r1, r2
   1490c:	e5832000 	str	r2, [r3]
   14910:	e28bd000 	add	sp, fp, #0
   14914:	e8bd0800 	ldmfd	sp!, {fp}
   14918:	e12fff1e 	bx	lr
   1491c:	00015c18 	andeq	r5, r1, r8, lsl ip

00014920 <userApp1>:
   14920:	e92d4800 	push	{fp, lr}
   14924:	e28db004 	add	fp, sp, #4
   14928:	e24dd030 	sub	sp, sp, #48	; 0x30
   1492c:	e50b0030 	str	r0, [fp, #-48]	; 0xffffffd0
   14930:	e3a03000 	mov	r3, #0
   14934:	e50b3008 	str	r3, [fp, #-8]
   14938:	ea000055 	b	14a94 <userApp1+0x174>
   1493c:	e59f3508 	ldr	r3, [pc, #1288]	; 14e4c <userApp1+0x52c>
   14940:	e5931000 	ldr	r1, [r3]
   14944:	e59f3504 	ldr	r3, [pc, #1284]	; 14e50 <userApp1+0x530>
   14948:	e51b2008 	ldr	r2, [fp, #-8]
   1494c:	e7933102 	ldr	r3, [r3, r2, lsl #2]
   14950:	e59f24fc 	ldr	r2, [pc, #1276]	; 14e54 <userApp1+0x534>
   14954:	e0c20392 	smull	r0, r2, r2, r3
   14958:	e1a02142 	asr	r2, r2, #2
   1495c:	e1a03fc3 	asr	r3, r3, #31
   14960:	e0633002 	rsb	r3, r3, r2
   14964:	e1a02003 	mov	r2, r3
   14968:	e1a02102 	lsl	r2, r2, #2
   1496c:	e0810002 	add	r0, r1, r2
   14970:	e59f24d4 	ldr	r2, [pc, #1236]	; 14e4c <userApp1+0x52c>
   14974:	e5922000 	ldr	r2, [r2]
   14978:	e1a03103 	lsl	r3, r3, #2
   1497c:	e0823003 	add	r3, r2, r3
   14980:	e593c000 	ldr	ip, [r3]
   14984:	e59f34c4 	ldr	r3, [pc, #1220]	; 14e50 <userApp1+0x530>
   14988:	e51b2008 	ldr	r2, [fp, #-8]
   1498c:	e7931102 	ldr	r1, [r3, r2, lsl #2]
   14990:	e59f34bc 	ldr	r3, [pc, #1212]	; 14e54 <userApp1+0x534>
   14994:	e0c32193 	smull	r2, r3, r3, r1
   14998:	e1a02143 	asr	r2, r3, #2
   1499c:	e1a03fc1 	asr	r3, r1, #31
   149a0:	e0632002 	rsb	r2, r3, r2
   149a4:	e1a03002 	mov	r3, r2
   149a8:	e1a03103 	lsl	r3, r3, #2
   149ac:	e0833002 	add	r3, r3, r2
   149b0:	e1a03083 	lsl	r3, r3, #1
   149b4:	e0632001 	rsb	r2, r3, r1
   149b8:	e1a03002 	mov	r3, r2
   149bc:	e1a03083 	lsl	r3, r3, #1
   149c0:	e0833002 	add	r3, r3, r2
   149c4:	e3a02007 	mov	r2, #7
   149c8:	e1a03312 	lsl	r3, r2, r3
   149cc:	e1e03003 	mvn	r3, r3
   149d0:	e00c3003 	and	r3, ip, r3
   149d4:	e5803000 	str	r3, [r0]
   149d8:	e59f346c 	ldr	r3, [pc, #1132]	; 14e4c <userApp1+0x52c>
   149dc:	e5931000 	ldr	r1, [r3]
   149e0:	e59f3468 	ldr	r3, [pc, #1128]	; 14e50 <userApp1+0x530>
   149e4:	e51b2008 	ldr	r2, [fp, #-8]
   149e8:	e7933102 	ldr	r3, [r3, r2, lsl #2]
   149ec:	e59f2460 	ldr	r2, [pc, #1120]	; 14e54 <userApp1+0x534>
   149f0:	e0c20392 	smull	r0, r2, r2, r3
   149f4:	e1a02142 	asr	r2, r2, #2
   149f8:	e1a03fc3 	asr	r3, r3, #31
   149fc:	e0633002 	rsb	r3, r3, r2
   14a00:	e1a02003 	mov	r2, r3
   14a04:	e1a02102 	lsl	r2, r2, #2
   14a08:	e0810002 	add	r0, r1, r2
   14a0c:	e59f2438 	ldr	r2, [pc, #1080]	; 14e4c <userApp1+0x52c>
   14a10:	e5922000 	ldr	r2, [r2]
   14a14:	e1a03103 	lsl	r3, r3, #2
   14a18:	e0823003 	add	r3, r2, r3
   14a1c:	e593c000 	ldr	ip, [r3]
   14a20:	e59f3428 	ldr	r3, [pc, #1064]	; 14e50 <userApp1+0x530>
   14a24:	e51b2008 	ldr	r2, [fp, #-8]
   14a28:	e7931102 	ldr	r1, [r3, r2, lsl #2]
   14a2c:	e59f3420 	ldr	r3, [pc, #1056]	; 14e54 <userApp1+0x534>
   14a30:	e0c32193 	smull	r2, r3, r3, r1
   14a34:	e1a02143 	asr	r2, r3, #2
   14a38:	e1a03fc1 	asr	r3, r1, #31
   14a3c:	e0632002 	rsb	r2, r3, r2
   14a40:	e1a03002 	mov	r3, r2
   14a44:	e1a03103 	lsl	r3, r3, #2
   14a48:	e0833002 	add	r3, r3, r2
   14a4c:	e1a03083 	lsl	r3, r3, #1
   14a50:	e0632001 	rsb	r2, r3, r1
   14a54:	e1a03002 	mov	r3, r2
   14a58:	e1a03083 	lsl	r3, r3, #1
   14a5c:	e0833002 	add	r3, r3, r2
   14a60:	e3a02001 	mov	r2, #1
   14a64:	e1a03312 	lsl	r3, r2, r3
   14a68:	e18c3003 	orr	r3, ip, r3
   14a6c:	e5803000 	str	r3, [r0]
   14a70:	e59f33d8 	ldr	r3, [pc, #984]	; 14e50 <userApp1+0x530>
   14a74:	e51b2008 	ldr	r2, [fp, #-8]
   14a78:	e7933102 	ldr	r3, [r3, r2, lsl #2]
   14a7c:	e1a00003 	mov	r0, r3
   14a80:	e3a01001 	mov	r1, #1
   14a84:	ebffff8a 	bl	148b4 <digitalWrite>
   14a88:	e51b3008 	ldr	r3, [fp, #-8]
   14a8c:	e2833001 	add	r3, r3, #1
   14a90:	e50b3008 	str	r3, [fp, #-8]
   14a94:	e51b3008 	ldr	r3, [fp, #-8]
   14a98:	e3530007 	cmp	r3, #7
   14a9c:	daffffa6 	ble	1493c <userApp1+0x1c>
   14aa0:	e3a03000 	mov	r3, #0
   14aa4:	e50b3008 	str	r3, [fp, #-8]
   14aa8:	ea000055 	b	14c04 <userApp1+0x2e4>
   14aac:	e59f3398 	ldr	r3, [pc, #920]	; 14e4c <userApp1+0x52c>
   14ab0:	e5931000 	ldr	r1, [r3]
   14ab4:	e59f339c 	ldr	r3, [pc, #924]	; 14e58 <userApp1+0x538>
   14ab8:	e51b2008 	ldr	r2, [fp, #-8]
   14abc:	e7933102 	ldr	r3, [r3, r2, lsl #2]
   14ac0:	e59f238c 	ldr	r2, [pc, #908]	; 14e54 <userApp1+0x534>
   14ac4:	e0c20392 	smull	r0, r2, r2, r3
   14ac8:	e1a02142 	asr	r2, r2, #2
   14acc:	e1a03fc3 	asr	r3, r3, #31
   14ad0:	e0633002 	rsb	r3, r3, r2
   14ad4:	e1a02003 	mov	r2, r3
   14ad8:	e1a02102 	lsl	r2, r2, #2
   14adc:	e0810002 	add	r0, r1, r2
   14ae0:	e59f2364 	ldr	r2, [pc, #868]	; 14e4c <userApp1+0x52c>
   14ae4:	e5922000 	ldr	r2, [r2]
   14ae8:	e1a03103 	lsl	r3, r3, #2
   14aec:	e0823003 	add	r3, r2, r3
   14af0:	e593c000 	ldr	ip, [r3]
   14af4:	e59f335c 	ldr	r3, [pc, #860]	; 14e58 <userApp1+0x538>
   14af8:	e51b2008 	ldr	r2, [fp, #-8]
   14afc:	e7931102 	ldr	r1, [r3, r2, lsl #2]
   14b00:	e59f334c 	ldr	r3, [pc, #844]	; 14e54 <userApp1+0x534>
   14b04:	e0c32193 	smull	r2, r3, r3, r1
   14b08:	e1a02143 	asr	r2, r3, #2
   14b0c:	e1a03fc1 	asr	r3, r1, #31
   14b10:	e0632002 	rsb	r2, r3, r2
   14b14:	e1a03002 	mov	r3, r2
   14b18:	e1a03103 	lsl	r3, r3, #2
   14b1c:	e0833002 	add	r3, r3, r2
   14b20:	e1a03083 	lsl	r3, r3, #1
   14b24:	e0632001 	rsb	r2, r3, r1
   14b28:	e1a03002 	mov	r3, r2
   14b2c:	e1a03083 	lsl	r3, r3, #1
   14b30:	e0833002 	add	r3, r3, r2
   14b34:	e3a02007 	mov	r2, #7
   14b38:	e1a03312 	lsl	r3, r2, r3
   14b3c:	e1e03003 	mvn	r3, r3
   14b40:	e00c3003 	and	r3, ip, r3
   14b44:	e5803000 	str	r3, [r0]
   14b48:	e59f32fc 	ldr	r3, [pc, #764]	; 14e4c <userApp1+0x52c>
   14b4c:	e5931000 	ldr	r1, [r3]
   14b50:	e59f3300 	ldr	r3, [pc, #768]	; 14e58 <userApp1+0x538>
   14b54:	e51b2008 	ldr	r2, [fp, #-8]
   14b58:	e7933102 	ldr	r3, [r3, r2, lsl #2]
   14b5c:	e59f22f0 	ldr	r2, [pc, #752]	; 14e54 <userApp1+0x534>
   14b60:	e0c20392 	smull	r0, r2, r2, r3
   14b64:	e1a02142 	asr	r2, r2, #2
   14b68:	e1a03fc3 	asr	r3, r3, #31
   14b6c:	e0633002 	rsb	r3, r3, r2
   14b70:	e1a02003 	mov	r2, r3
   14b74:	e1a02102 	lsl	r2, r2, #2
   14b78:	e0810002 	add	r0, r1, r2
   14b7c:	e59f22c8 	ldr	r2, [pc, #712]	; 14e4c <userApp1+0x52c>
   14b80:	e5922000 	ldr	r2, [r2]
   14b84:	e1a03103 	lsl	r3, r3, #2
   14b88:	e0823003 	add	r3, r2, r3
   14b8c:	e593c000 	ldr	ip, [r3]
   14b90:	e59f32c0 	ldr	r3, [pc, #704]	; 14e58 <userApp1+0x538>
   14b94:	e51b2008 	ldr	r2, [fp, #-8]
   14b98:	e7931102 	ldr	r1, [r3, r2, lsl #2]
   14b9c:	e59f32b0 	ldr	r3, [pc, #688]	; 14e54 <userApp1+0x534>
   14ba0:	e0c32193 	smull	r2, r3, r3, r1
   14ba4:	e1a02143 	asr	r2, r3, #2
   14ba8:	e1a03fc1 	asr	r3, r1, #31
   14bac:	e0632002 	rsb	r2, r3, r2
   14bb0:	e1a03002 	mov	r3, r2
   14bb4:	e1a03103 	lsl	r3, r3, #2
   14bb8:	e0833002 	add	r3, r3, r2
   14bbc:	e1a03083 	lsl	r3, r3, #1
   14bc0:	e0632001 	rsb	r2, r3, r1
   14bc4:	e1a03002 	mov	r3, r2
   14bc8:	e1a03083 	lsl	r3, r3, #1
   14bcc:	e0833002 	add	r3, r3, r2
   14bd0:	e3a02001 	mov	r2, #1
   14bd4:	e1a03312 	lsl	r3, r2, r3
   14bd8:	e18c3003 	orr	r3, ip, r3
   14bdc:	e5803000 	str	r3, [r0]
   14be0:	e59f3270 	ldr	r3, [pc, #624]	; 14e58 <userApp1+0x538>
   14be4:	e51b2008 	ldr	r2, [fp, #-8]
   14be8:	e7933102 	ldr	r3, [r3, r2, lsl #2]
   14bec:	e1a00003 	mov	r0, r3
   14bf0:	e3a01000 	mov	r1, #0
   14bf4:	ebffff2e 	bl	148b4 <digitalWrite>
   14bf8:	e51b3008 	ldr	r3, [fp, #-8]
   14bfc:	e2833001 	add	r3, r3, #1
   14c00:	e50b3008 	str	r3, [fp, #-8]
   14c04:	e51b3008 	ldr	r3, [fp, #-8]
   14c08:	e3530003 	cmp	r3, #3
   14c0c:	daffffa6 	ble	14aac <userApp1+0x18c>
   14c10:	e59f3234 	ldr	r3, [pc, #564]	; 14e4c <userApp1+0x52c>
   14c14:	e5933000 	ldr	r3, [r3]
   14c18:	e2833004 	add	r3, r3, #4
   14c1c:	e59f2228 	ldr	r2, [pc, #552]	; 14e4c <userApp1+0x52c>
   14c20:	e5922000 	ldr	r2, [r2]
   14c24:	e2822004 	add	r2, r2, #4
   14c28:	e5922000 	ldr	r2, [r2]
   14c2c:	e3c22707 	bic	r2, r2, #1835008	; 0x1c0000
   14c30:	e5832000 	str	r2, [r3]
   14c34:	e59f3210 	ldr	r3, [pc, #528]	; 14e4c <userApp1+0x52c>
   14c38:	e5933000 	ldr	r3, [r3]
   14c3c:	e2833004 	add	r3, r3, #4
   14c40:	e59f2204 	ldr	r2, [pc, #516]	; 14e4c <userApp1+0x52c>
   14c44:	e5922000 	ldr	r2, [r2]
   14c48:	e2822004 	add	r2, r2, #4
   14c4c:	e5922000 	ldr	r2, [r2]
   14c50:	e3822701 	orr	r2, r2, #262144	; 0x40000
   14c54:	e5832000 	str	r2, [r3]
   14c58:	e3a03000 	mov	r3, #0
   14c5c:	e50b300c 	str	r3, [fp, #-12]
   14c60:	e59f31f4 	ldr	r3, [pc, #500]	; 14e5c <userApp1+0x53c>
   14c64:	e24bc028 	sub	ip, fp, #40	; 0x28
   14c68:	e893000f 	ldm	r3, {r0, r1, r2, r3}
   14c6c:	e88c000f 	stm	ip, {r0, r1, r2, r3}
   14c70:	e3a03000 	mov	r3, #0
   14c74:	e50b3018 	str	r3, [fp, #-24]	; 0xffffffe8
   14c78:	e59f31e0 	ldr	r3, [pc, #480]	; 14e60 <userApp1+0x540>
   14c7c:	e5933000 	ldr	r3, [r3]
   14c80:	e50b3010 	str	r3, [fp, #-16]
   14c84:	e59f31d4 	ldr	r3, [pc, #468]	; 14e60 <userApp1+0x540>
   14c88:	e5933008 	ldr	r3, [r3, #8]
   14c8c:	e50b3014 	str	r3, [fp, #-20]	; 0xffffffec
   14c90:	e59f31c8 	ldr	r3, [pc, #456]	; 14e60 <userApp1+0x540>
   14c94:	e5932000 	ldr	r2, [r3]
   14c98:	e51b3010 	ldr	r3, [fp, #-16]
   14c9c:	e1520003 	cmp	r2, r3
   14ca0:	1a000004 	bne	14cb8 <userApp1+0x398>
   14ca4:	e59f31b4 	ldr	r3, [pc, #436]	; 14e60 <userApp1+0x540>
   14ca8:	e5932008 	ldr	r2, [r3, #8]
   14cac:	e51b3014 	ldr	r3, [fp, #-20]	; 0xffffffec
   14cb0:	e1520003 	cmp	r2, r3
   14cb4:	0a000029 	beq	14d60 <userApp1+0x440>
   14cb8:	e59f31a0 	ldr	r3, [pc, #416]	; 14e60 <userApp1+0x540>
   14cbc:	e5931000 	ldr	r1, [r3]
   14cc0:	e59f318c 	ldr	r3, [pc, #396]	; 14e54 <userApp1+0x534>
   14cc4:	e0c30193 	smull	r0, r3, r3, r1
   14cc8:	e1a02143 	asr	r2, r3, #2
   14ccc:	e1a03fc1 	asr	r3, r1, #31
   14cd0:	e0632002 	rsb	r2, r3, r2
   14cd4:	e1a03002 	mov	r3, r2
   14cd8:	e1a03103 	lsl	r3, r3, #2
   14cdc:	e0833002 	add	r3, r3, r2
   14ce0:	e1a03083 	lsl	r3, r3, #1
   14ce4:	e0632001 	rsb	r2, r3, r1
   14ce8:	e50b2024 	str	r2, [fp, #-36]	; 0xffffffdc
   14cec:	e59f316c 	ldr	r3, [pc, #364]	; 14e60 <userApp1+0x540>
   14cf0:	e5933000 	ldr	r3, [r3]
   14cf4:	e59f2158 	ldr	r2, [pc, #344]	; 14e54 <userApp1+0x534>
   14cf8:	e0c21392 	smull	r1, r2, r2, r3
   14cfc:	e1a02142 	asr	r2, r2, #2
   14d00:	e1a03fc3 	asr	r3, r3, #31
   14d04:	e0633002 	rsb	r3, r3, r2
   14d08:	e50b3028 	str	r3, [fp, #-40]	; 0xffffffd8
   14d0c:	e59f314c 	ldr	r3, [pc, #332]	; 14e60 <userApp1+0x540>
   14d10:	e5931008 	ldr	r1, [r3, #8]
   14d14:	e59f3138 	ldr	r3, [pc, #312]	; 14e54 <userApp1+0x534>
   14d18:	e0c32193 	smull	r2, r3, r3, r1
   14d1c:	e1a02143 	asr	r2, r3, #2
   14d20:	e1a03fc1 	asr	r3, r1, #31
   14d24:	e0632002 	rsb	r2, r3, r2
   14d28:	e1a03002 	mov	r3, r2
   14d2c:	e1a03103 	lsl	r3, r3, #2
   14d30:	e0833002 	add	r3, r3, r2
   14d34:	e1a03083 	lsl	r3, r3, #1
   14d38:	e0632001 	rsb	r2, r3, r1
   14d3c:	e50b201c 	str	r2, [fp, #-28]	; 0xffffffe4
   14d40:	e59f3118 	ldr	r3, [pc, #280]	; 14e60 <userApp1+0x540>
   14d44:	e5933008 	ldr	r3, [r3, #8]
   14d48:	e59f2104 	ldr	r2, [pc, #260]	; 14e54 <userApp1+0x534>
   14d4c:	e0c20392 	smull	r0, r2, r2, r3
   14d50:	e1a02142 	asr	r2, r2, #2
   14d54:	e1a03fc3 	asr	r3, r3, #31
   14d58:	e0633002 	rsb	r3, r3, r2
   14d5c:	e50b3020 	str	r3, [fp, #-32]	; 0xffffffe0
   14d60:	e59f30f8 	ldr	r3, [pc, #248]	; 14e60 <userApp1+0x540>
   14d64:	e5933000 	ldr	r3, [r3]
   14d68:	e50b3010 	str	r3, [fp, #-16]
   14d6c:	e59f30ec 	ldr	r3, [pc, #236]	; 14e60 <userApp1+0x540>
   14d70:	e5933008 	ldr	r3, [r3, #8]
   14d74:	e50b3014 	str	r3, [fp, #-20]	; 0xffffffec
   14d78:	e59f30d8 	ldr	r3, [pc, #216]	; 14e58 <userApp1+0x538>
   14d7c:	e51b200c 	ldr	r2, [fp, #-12]
   14d80:	e7933102 	ldr	r3, [r3, r2, lsl #2]
   14d84:	e1a00003 	mov	r0, r3
   14d88:	e3a01000 	mov	r1, #0
   14d8c:	ebfffec8 	bl	148b4 <digitalWrite>
   14d90:	e51b300c 	ldr	r3, [fp, #-12]
   14d94:	e2832001 	add	r2, r3, #1
   14d98:	e1a03fc2 	asr	r3, r2, #31
   14d9c:	e1a03f23 	lsr	r3, r3, #30
   14da0:	e0822003 	add	r2, r2, r3
   14da4:	e2022003 	and	r2, r2, #3
   14da8:	e0633002 	rsb	r3, r3, r2
   14dac:	e50b300c 	str	r3, [fp, #-12]
   14db0:	e51b200c 	ldr	r2, [fp, #-12]
   14db4:	e3e03023 	mvn	r3, #35	; 0x23
   14db8:	e1a02102 	lsl	r2, r2, #2
   14dbc:	e24b1004 	sub	r1, fp, #4
   14dc0:	e0812002 	add	r2, r1, r2
   14dc4:	e0823003 	add	r3, r2, r3
   14dc8:	e5933000 	ldr	r3, [r3]
   14dcc:	e50b3018 	str	r3, [fp, #-24]	; 0xffffffe8
   14dd0:	e3a03000 	mov	r3, #0
   14dd4:	e50b3008 	str	r3, [fp, #-8]
   14dd8:	ea00000f 	b	14e1c <userApp1+0x4fc>
   14ddc:	e59f306c 	ldr	r3, [pc, #108]	; 14e50 <userApp1+0x530>
   14de0:	e51b2008 	ldr	r2, [fp, #-8]
   14de4:	e7932102 	ldr	r2, [r3, r2, lsl #2]
   14de8:	e59f1074 	ldr	r1, [pc, #116]	; 14e64 <userApp1+0x544>
   14dec:	e51b3018 	ldr	r3, [fp, #-24]	; 0xffffffe8
   14df0:	e1a00183 	lsl	r0, r3, #3
   14df4:	e51b3008 	ldr	r3, [fp, #-8]
   14df8:	e0803003 	add	r3, r0, r3
   14dfc:	e0813003 	add	r3, r1, r3
   14e00:	e5d33000 	ldrb	r3, [r3]
   14e04:	e1a00002 	mov	r0, r2
   14e08:	e1a01003 	mov	r1, r3
   14e0c:	ebfffea8 	bl	148b4 <digitalWrite>
   14e10:	e51b3008 	ldr	r3, [fp, #-8]
   14e14:	e2833001 	add	r3, r3, #1
   14e18:	e50b3008 	str	r3, [fp, #-8]
   14e1c:	e51b3008 	ldr	r3, [fp, #-8]
   14e20:	e3530007 	cmp	r3, #7
   14e24:	daffffec 	ble	14ddc <userApp1+0x4bc>
   14e28:	e59f3028 	ldr	r3, [pc, #40]	; 14e58 <userApp1+0x538>
   14e2c:	e51b200c 	ldr	r2, [fp, #-12]
   14e30:	e7933102 	ldr	r3, [r3, r2, lsl #2]
   14e34:	e1a00003 	mov	r0, r3
   14e38:	e3a01001 	mov	r1, #1
   14e3c:	ebfffe9c 	bl	148b4 <digitalWrite>
   14e40:	e3a00001 	mov	r0, #1
   14e44:	ebfffc9d 	bl	140c0 <OSTimeDly>
   14e48:	eaffff90 	b	14c90 <userApp1+0x370>
   14e4c:	00015c18 	andeq	r5, r1, r8, lsl ip
   14e50:	00015c80 	andeq	r5, r1, r0, lsl #25
   14e54:	66666667 	strbtvs	r6, [r6], -r7, ror #12
   14e58:	00015c70 	andeq	r5, r1, r0, ror ip
   14e5c:	00015c08 	andeq	r5, r1, r8, lsl #24
   14e60:	00015ca0 	andeq	r5, r1, r0, lsr #25
   14e64:	00015c20 	andeq	r5, r1, r0, lsr #24

00014e68 <memcpy>:
   14e68:	e352000f 	cmp	r2, #15
   14e6c:	e92d00f0 	push	{r4, r5, r6, r7}
   14e70:	9a00002a 	bls	14f20 <memcpy+0xb8>
   14e74:	e1813000 	orr	r3, r1, r0
   14e78:	e3130003 	tst	r3, #3
   14e7c:	1a000032 	bne	14f4c <memcpy+0xe4>
   14e80:	e1a0c001 	mov	ip, r1
   14e84:	e1a03000 	mov	r3, r0
   14e88:	e1a04002 	mov	r4, r2
   14e8c:	e59c5000 	ldr	r5, [ip]
   14e90:	e5835000 	str	r5, [r3]
   14e94:	e59c5004 	ldr	r5, [ip, #4]
   14e98:	e5835004 	str	r5, [r3, #4]
   14e9c:	e59c5008 	ldr	r5, [ip, #8]
   14ea0:	e5835008 	str	r5, [r3, #8]
   14ea4:	e2444010 	sub	r4, r4, #16
   14ea8:	e59c500c 	ldr	r5, [ip, #12]
   14eac:	e354000f 	cmp	r4, #15
   14eb0:	e583500c 	str	r5, [r3, #12]
   14eb4:	e28cc010 	add	ip, ip, #16
   14eb8:	e2833010 	add	r3, r3, #16
   14ebc:	8afffff2 	bhi	14e8c <memcpy+0x24>
   14ec0:	e2424010 	sub	r4, r2, #16
   14ec4:	e3c4400f 	bic	r4, r4, #15
   14ec8:	e202c00f 	and	ip, r2, #15
   14ecc:	e2844010 	add	r4, r4, #16
   14ed0:	e35c0003 	cmp	ip, #3
   14ed4:	e0803004 	add	r3, r0, r4
   14ed8:	e0811004 	add	r1, r1, r4
   14edc:	9a00001c 	bls	14f54 <memcpy+0xec>
   14ee0:	e24cc004 	sub	ip, ip, #4
   14ee4:	e1a0712c 	lsr	r7, ip, #2
   14ee8:	e0816107 	add	r6, r1, r7, lsl #2
   14eec:	e1a0c001 	mov	ip, r1
   14ef0:	e2866004 	add	r6, r6, #4
   14ef4:	e1a04003 	mov	r4, r3
   14ef8:	e49c5004 	ldr	r5, [ip], #4
   14efc:	e15c0006 	cmp	ip, r6
   14f00:	e4845004 	str	r5, [r4], #4
   14f04:	1afffffb 	bne	14ef8 <memcpy+0x90>
   14f08:	e287c001 	add	ip, r7, #1
   14f0c:	e1a0c10c 	lsl	ip, ip, #2
   14f10:	e2022003 	and	r2, r2, #3
   14f14:	e081100c 	add	r1, r1, ip
   14f18:	e083300c 	add	r3, r3, ip
   14f1c:	ea000000 	b	14f24 <memcpy+0xbc>
   14f20:	e1a03000 	mov	r3, r0
   14f24:	e3520000 	cmp	r2, #0
   14f28:	0a000005 	beq	14f44 <memcpy+0xdc>
   14f2c:	e2411001 	sub	r1, r1, #1
   14f30:	e0832002 	add	r2, r3, r2
   14f34:	e5f1c001 	ldrb	ip, [r1, #1]!
   14f38:	e4c3c001 	strb	ip, [r3], #1
   14f3c:	e1530002 	cmp	r3, r2
   14f40:	1afffffb 	bne	14f34 <memcpy+0xcc>
   14f44:	e8bd00f0 	pop	{r4, r5, r6, r7}
   14f48:	e12fff1e 	bx	lr
   14f4c:	e1a03000 	mov	r3, r0
   14f50:	eafffff5 	b	14f2c <memcpy+0xc4>
   14f54:	e1a0200c 	mov	r2, ip
   14f58:	eafffff1 	b	14f24 <memcpy+0xbc>

00014f5c <memset>:
   14f5c:	e3100003 	tst	r0, #3
   14f60:	e92d0030 	push	{r4, r5}
   14f64:	e1a03000 	mov	r3, r0
   14f68:	0a000037 	beq	1504c <memset+0xf0>
   14f6c:	e3520000 	cmp	r2, #0
   14f70:	e2422001 	sub	r2, r2, #1
   14f74:	0a000032 	beq	15044 <memset+0xe8>
   14f78:	e20140ff 	and	r4, r1, #255	; 0xff
   14f7c:	ea000002 	b	14f8c <memset+0x30>
   14f80:	e3520000 	cmp	r2, #0
   14f84:	e2422001 	sub	r2, r2, #1
   14f88:	0a00002d 	beq	15044 <memset+0xe8>
   14f8c:	e4c34001 	strb	r4, [r3], #1
   14f90:	e3130003 	tst	r3, #3
   14f94:	e1a0c003 	mov	ip, r3
   14f98:	1afffff8 	bne	14f80 <memset+0x24>
   14f9c:	e3520003 	cmp	r2, #3
   14fa0:	9a000020 	bls	15028 <memset+0xcc>
   14fa4:	e20140ff 	and	r4, r1, #255	; 0xff
   14fa8:	e352000f 	cmp	r2, #15
   14fac:	e1844404 	orr	r4, r4, r4, lsl #8
   14fb0:	e1844804 	orr	r4, r4, r4, lsl #16
   14fb4:	81a0300c 	movhi	r3, ip
   14fb8:	81a05002 	movhi	r5, r2
   14fbc:	9a00000e 	bls	14ffc <memset+0xa0>
   14fc0:	e2455010 	sub	r5, r5, #16
   14fc4:	e355000f 	cmp	r5, #15
   14fc8:	e5834000 	str	r4, [r3]
   14fcc:	e5834004 	str	r4, [r3, #4]
   14fd0:	e5834008 	str	r4, [r3, #8]
   14fd4:	e583400c 	str	r4, [r3, #12]
   14fd8:	e2833010 	add	r3, r3, #16
   14fdc:	8afffff7 	bhi	14fc0 <memset+0x64>
   14fe0:	e2423010 	sub	r3, r2, #16
   14fe4:	e3c3300f 	bic	r3, r3, #15
   14fe8:	e202200f 	and	r2, r2, #15
   14fec:	e2833010 	add	r3, r3, #16
   14ff0:	e3520003 	cmp	r2, #3
   14ff4:	e08cc003 	add	ip, ip, r3
   14ff8:	9a00000a 	bls	15028 <memset+0xcc>
   14ffc:	e1a0500c 	mov	r5, ip
   15000:	e1a03002 	mov	r3, r2
   15004:	e2433004 	sub	r3, r3, #4
   15008:	e3530003 	cmp	r3, #3
   1500c:	e4854004 	str	r4, [r5], #4
   15010:	8afffffb 	bhi	15004 <memset+0xa8>
   15014:	e2423004 	sub	r3, r2, #4
   15018:	e3c33003 	bic	r3, r3, #3
   1501c:	e2833004 	add	r3, r3, #4
   15020:	e2022003 	and	r2, r2, #3
   15024:	e08cc003 	add	ip, ip, r3
   15028:	e3520000 	cmp	r2, #0
   1502c:	120110ff 	andne	r1, r1, #255	; 0xff
   15030:	108c2002 	addne	r2, ip, r2
   15034:	0a000002 	beq	15044 <memset+0xe8>
   15038:	e4cc1001 	strb	r1, [ip], #1
   1503c:	e15c0002 	cmp	ip, r2
   15040:	1afffffc 	bne	15038 <memset+0xdc>
   15044:	e8bd0030 	pop	{r4, r5}
   15048:	e12fff1e 	bx	lr
   1504c:	e1a0c000 	mov	ip, r0
   15050:	eaffffd1 	b	14f9c <memset+0x40>

00015054 <__aeabi_uidiv>:
   15054:	e2512001 	subs	r2, r1, #1
   15058:	012fff1e 	bxeq	lr
   1505c:	3a000036 	bcc	1513c <__aeabi_uidiv+0xe8>
   15060:	e1500001 	cmp	r0, r1
   15064:	9a000022 	bls	150f4 <__aeabi_uidiv+0xa0>
   15068:	e1110002 	tst	r1, r2
   1506c:	0a000023 	beq	15100 <__aeabi_uidiv+0xac>
   15070:	e311020e 	tst	r1, #-536870912	; 0xe0000000
   15074:	01a01181 	lsleq	r1, r1, #3
   15078:	03a03008 	moveq	r3, #8
   1507c:	13a03001 	movne	r3, #1
   15080:	e3510201 	cmp	r1, #268435456	; 0x10000000
   15084:	31510000 	cmpcc	r1, r0
   15088:	31a01201 	lslcc	r1, r1, #4
   1508c:	31a03203 	lslcc	r3, r3, #4
   15090:	3afffffa 	bcc	15080 <__aeabi_uidiv+0x2c>
   15094:	e3510102 	cmp	r1, #-2147483648	; 0x80000000
   15098:	31510000 	cmpcc	r1, r0
   1509c:	31a01081 	lslcc	r1, r1, #1
   150a0:	31a03083 	lslcc	r3, r3, #1
   150a4:	3afffffa 	bcc	15094 <__aeabi_uidiv+0x40>
   150a8:	e3a02000 	mov	r2, #0
   150ac:	e1500001 	cmp	r0, r1
   150b0:	20400001 	subcs	r0, r0, r1
   150b4:	21822003 	orrcs	r2, r2, r3
   150b8:	e15000a1 	cmp	r0, r1, lsr #1
   150bc:	204000a1 	subcs	r0, r0, r1, lsr #1
   150c0:	218220a3 	orrcs	r2, r2, r3, lsr #1
   150c4:	e1500121 	cmp	r0, r1, lsr #2
   150c8:	20400121 	subcs	r0, r0, r1, lsr #2
   150cc:	21822123 	orrcs	r2, r2, r3, lsr #2
   150d0:	e15001a1 	cmp	r0, r1, lsr #3
   150d4:	204001a1 	subcs	r0, r0, r1, lsr #3
   150d8:	218221a3 	orrcs	r2, r2, r3, lsr #3
   150dc:	e3500000 	cmp	r0, #0
   150e0:	11b03223 	lsrsne	r3, r3, #4
   150e4:	11a01221 	lsrne	r1, r1, #4
   150e8:	1affffef 	bne	150ac <__aeabi_uidiv+0x58>
   150ec:	e1a00002 	mov	r0, r2
   150f0:	e12fff1e 	bx	lr
   150f4:	03a00001 	moveq	r0, #1
   150f8:	13a00000 	movne	r0, #0
   150fc:	e12fff1e 	bx	lr
   15100:	e3510801 	cmp	r1, #65536	; 0x10000
   15104:	21a01821 	lsrcs	r1, r1, #16
   15108:	23a02010 	movcs	r2, #16
   1510c:	33a02000 	movcc	r2, #0
   15110:	e3510c01 	cmp	r1, #256	; 0x100
   15114:	21a01421 	lsrcs	r1, r1, #8
   15118:	22822008 	addcs	r2, r2, #8
   1511c:	e3510010 	cmp	r1, #16
   15120:	21a01221 	lsrcs	r1, r1, #4
   15124:	22822004 	addcs	r2, r2, #4
   15128:	e3510004 	cmp	r1, #4
   1512c:	82822003 	addhi	r2, r2, #3
   15130:	908220a1 	addls	r2, r2, r1, lsr #1
   15134:	e1a00230 	lsr	r0, r0, r2
   15138:	e12fff1e 	bx	lr
   1513c:	e3500000 	cmp	r0, #0
   15140:	13e00000 	mvnne	r0, #0
   15144:	ea000007 	b	15168 <__aeabi_idiv0>

00015148 <__aeabi_uidivmod>:
   15148:	e3510000 	cmp	r1, #0
   1514c:	0afffffa 	beq	1513c <__aeabi_uidiv+0xe8>
   15150:	e92d4003 	push	{r0, r1, lr}
   15154:	ebffffbe 	bl	15054 <__aeabi_uidiv>
   15158:	e8bd4006 	pop	{r1, r2, lr}
   1515c:	e0030092 	mul	r3, r2, r0
   15160:	e0411003 	sub	r1, r1, r3
   15164:	e12fff1e 	bx	lr

00015168 <__aeabi_idiv0>:
   15168:	e12fff1e 	bx	lr

0001516c <__aeabi_drsub>:
   1516c:	e2211102 	eor	r1, r1, #-2147483648	; 0x80000000
   15170:	ea000000 	b	15178 <__adddf3>

00015174 <__aeabi_dsub>:
   15174:	e2233102 	eor	r3, r3, #-2147483648	; 0x80000000

00015178 <__adddf3>:
   15178:	e92d4030 	push	{r4, r5, lr}
   1517c:	e1a04081 	lsl	r4, r1, #1
   15180:	e1a05083 	lsl	r5, r3, #1
   15184:	e1340005 	teq	r4, r5
   15188:	01300002 	teqeq	r0, r2
   1518c:	1194c000 	orrsne	ip, r4, r0
   15190:	1195c002 	orrsne	ip, r5, r2
   15194:	11f0cac4 	mvnsne	ip, r4, asr #21
   15198:	11f0cac5 	mvnsne	ip, r5, asr #21
   1519c:	0a00008c 	beq	153d4 <__adddf3+0x25c>
   151a0:	e1a04aa4 	lsr	r4, r4, #21
   151a4:	e0745aa5 	rsbs	r5, r4, r5, lsr #21
   151a8:	b2655000 	rsblt	r5, r5, #0
   151ac:	da000006 	ble	151cc <__adddf3+0x54>
   151b0:	e0844005 	add	r4, r4, r5
   151b4:	e0202002 	eor	r2, r0, r2
   151b8:	e0213003 	eor	r3, r1, r3
   151bc:	e0220000 	eor	r0, r2, r0
   151c0:	e0231001 	eor	r1, r3, r1
   151c4:	e0202002 	eor	r2, r0, r2
   151c8:	e0213003 	eor	r3, r1, r3
   151cc:	e3550036 	cmp	r5, #54	; 0x36
   151d0:	88bd4030 	pophi	{r4, r5, lr}
   151d4:	812fff1e 	bxhi	lr
   151d8:	e3110102 	tst	r1, #-2147483648	; 0x80000000
   151dc:	e1a01601 	lsl	r1, r1, #12
   151e0:	e3a0c601 	mov	ip, #1048576	; 0x100000
   151e4:	e18c1621 	orr	r1, ip, r1, lsr #12
   151e8:	0a000001 	beq	151f4 <__adddf3+0x7c>
   151ec:	e2700000 	rsbs	r0, r0, #0
   151f0:	e2e11000 	rsc	r1, r1, #0
   151f4:	e3130102 	tst	r3, #-2147483648	; 0x80000000
   151f8:	e1a03603 	lsl	r3, r3, #12
   151fc:	e18c3623 	orr	r3, ip, r3, lsr #12
   15200:	0a000001 	beq	1520c <__adddf3+0x94>
   15204:	e2722000 	rsbs	r2, r2, #0
   15208:	e2e33000 	rsc	r3, r3, #0
   1520c:	e1340005 	teq	r4, r5
   15210:	0a000069 	beq	153bc <__adddf3+0x244>
   15214:	e2444001 	sub	r4, r4, #1
   15218:	e275e020 	rsbs	lr, r5, #32
   1521c:	ba000005 	blt	15238 <__adddf3+0xc0>
   15220:	e1a0ce12 	lsl	ip, r2, lr
   15224:	e0900532 	adds	r0, r0, r2, lsr r5
   15228:	e2a11000 	adc	r1, r1, #0
   1522c:	e0900e13 	adds	r0, r0, r3, lsl lr
   15230:	e0b11553 	adcs	r1, r1, r3, asr r5
   15234:	ea000006 	b	15254 <__adddf3+0xdc>
   15238:	e2455020 	sub	r5, r5, #32
   1523c:	e28ee020 	add	lr, lr, #32
   15240:	e3520001 	cmp	r2, #1
   15244:	e1a0ce13 	lsl	ip, r3, lr
   15248:	238cc002 	orrcs	ip, ip, #2
   1524c:	e0900553 	adds	r0, r0, r3, asr r5
   15250:	e0b11fc3 	adcs	r1, r1, r3, asr #31
   15254:	e2015102 	and	r5, r1, #-2147483648	; 0x80000000
   15258:	5a000002 	bpl	15268 <__adddf3+0xf0>
   1525c:	e27cc000 	rsbs	ip, ip, #0
   15260:	e2f00000 	rscs	r0, r0, #0
   15264:	e2e11000 	rsc	r1, r1, #0
   15268:	e3510601 	cmp	r1, #1048576	; 0x100000
   1526c:	3a00000f 	bcc	152b0 <__adddf3+0x138>
   15270:	e3510602 	cmp	r1, #2097152	; 0x200000
   15274:	3a000006 	bcc	15294 <__adddf3+0x11c>
   15278:	e1b010a1 	lsrs	r1, r1, #1
   1527c:	e1b00060 	rrxs	r0, r0
   15280:	e1a0c06c 	rrx	ip, ip
   15284:	e2844001 	add	r4, r4, #1
   15288:	e1a02a84 	lsl	r2, r4, #21
   1528c:	e3720501 	cmn	r2, #4194304	; 0x400000
   15290:	2a00006b 	bcs	15444 <__adddf3+0x2cc>
   15294:	e35c0102 	cmp	ip, #-2147483648	; 0x80000000
   15298:	01b0c0a0 	lsrseq	ip, r0, #1
   1529c:	e2b00000 	adcs	r0, r0, #0
   152a0:	e0a11a04 	adc	r1, r1, r4, lsl #20
   152a4:	e1811005 	orr	r1, r1, r5
   152a8:	e8bd4030 	pop	{r4, r5, lr}
   152ac:	e12fff1e 	bx	lr
   152b0:	e1b0c08c 	lsls	ip, ip, #1
   152b4:	e0b00000 	adcs	r0, r0, r0
   152b8:	e0a11001 	adc	r1, r1, r1
   152bc:	e3110601 	tst	r1, #1048576	; 0x100000
   152c0:	e2444001 	sub	r4, r4, #1
   152c4:	1afffff2 	bne	15294 <__adddf3+0x11c>
   152c8:	e3310000 	teq	r1, #0
   152cc:	13a03014 	movne	r3, #20
   152d0:	03a03034 	moveq	r3, #52	; 0x34
   152d4:	01a01000 	moveq	r1, r0
   152d8:	03a00000 	moveq	r0, #0
   152dc:	e1a02001 	mov	r2, r1
   152e0:	e3520801 	cmp	r2, #65536	; 0x10000
   152e4:	21a02822 	lsrcs	r2, r2, #16
   152e8:	22433010 	subcs	r3, r3, #16
   152ec:	e3520c01 	cmp	r2, #256	; 0x100
   152f0:	21a02422 	lsrcs	r2, r2, #8
   152f4:	22433008 	subcs	r3, r3, #8
   152f8:	e3520010 	cmp	r2, #16
   152fc:	21a02222 	lsrcs	r2, r2, #4
   15300:	22433004 	subcs	r3, r3, #4
   15304:	e3520004 	cmp	r2, #4
   15308:	22433002 	subcs	r3, r3, #2
   1530c:	304330a2 	subcc	r3, r3, r2, lsr #1
   15310:	e04331a2 	sub	r3, r3, r2, lsr #3
   15314:	e2532020 	subs	r2, r3, #32
   15318:	aa000007 	bge	1533c <__adddf3+0x1c4>
   1531c:	e292200c 	adds	r2, r2, #12
   15320:	da000004 	ble	15338 <__adddf3+0x1c0>
   15324:	e282c014 	add	ip, r2, #20
   15328:	e262200c 	rsb	r2, r2, #12
   1532c:	e1a00c11 	lsl	r0, r1, ip
   15330:	e1a01231 	lsr	r1, r1, r2
   15334:	ea000004 	b	1534c <__adddf3+0x1d4>
   15338:	e2822014 	add	r2, r2, #20
   1533c:	d262c020 	rsble	ip, r2, #32
   15340:	e1a01211 	lsl	r1, r1, r2
   15344:	d1811c30 	orrle	r1, r1, r0, lsr ip
   15348:	d1a00210 	lslle	r0, r0, r2
   1534c:	e0544003 	subs	r4, r4, r3
   15350:	a0811a04 	addge	r1, r1, r4, lsl #20
   15354:	a1811005 	orrge	r1, r1, r5
   15358:	a8bd4030 	popge	{r4, r5, lr}
   1535c:	a12fff1e 	bxge	lr
   15360:	e1e04004 	mvn	r4, r4
   15364:	e254401f 	subs	r4, r4, #31
   15368:	aa00000f 	bge	153ac <__adddf3+0x234>
   1536c:	e294400c 	adds	r4, r4, #12
   15370:	ca000006 	bgt	15390 <__adddf3+0x218>
   15374:	e2844014 	add	r4, r4, #20
   15378:	e2642020 	rsb	r2, r4, #32
   1537c:	e1a00430 	lsr	r0, r0, r4
   15380:	e1800211 	orr	r0, r0, r1, lsl r2
   15384:	e1851431 	orr	r1, r5, r1, lsr r4
   15388:	e8bd4030 	pop	{r4, r5, lr}
   1538c:	e12fff1e 	bx	lr
   15390:	e264400c 	rsb	r4, r4, #12
   15394:	e2642020 	rsb	r2, r4, #32
   15398:	e1a00230 	lsr	r0, r0, r2
   1539c:	e1800411 	orr	r0, r0, r1, lsl r4
   153a0:	e1a01005 	mov	r1, r5
   153a4:	e8bd4030 	pop	{r4, r5, lr}
   153a8:	e12fff1e 	bx	lr
   153ac:	e1a00431 	lsr	r0, r1, r4
   153b0:	e1a01005 	mov	r1, r5
   153b4:	e8bd4030 	pop	{r4, r5, lr}
   153b8:	e12fff1e 	bx	lr
   153bc:	e3340000 	teq	r4, #0
   153c0:	e2233601 	eor	r3, r3, #1048576	; 0x100000
   153c4:	02211601 	eoreq	r1, r1, #1048576	; 0x100000
   153c8:	02844001 	addeq	r4, r4, #1
   153cc:	12455001 	subne	r5, r5, #1
   153d0:	eaffff8f 	b	15214 <__adddf3+0x9c>
   153d4:	e1f0cac4 	mvns	ip, r4, asr #21
   153d8:	11f0cac5 	mvnsne	ip, r5, asr #21
   153dc:	0a00001d 	beq	15458 <__adddf3+0x2e0>
   153e0:	e1340005 	teq	r4, r5
   153e4:	01300002 	teqeq	r0, r2
   153e8:	0a000004 	beq	15400 <__adddf3+0x288>
   153ec:	e194c000 	orrs	ip, r4, r0
   153f0:	01a01003 	moveq	r1, r3
   153f4:	01a00002 	moveq	r0, r2
   153f8:	e8bd4030 	pop	{r4, r5, lr}
   153fc:	e12fff1e 	bx	lr
   15400:	e1310003 	teq	r1, r3
   15404:	13a01000 	movne	r1, #0
   15408:	13a00000 	movne	r0, #0
   1540c:	18bd4030 	popne	{r4, r5, lr}
   15410:	112fff1e 	bxne	lr
   15414:	e1b0caa4 	lsrs	ip, r4, #21
   15418:	1a000004 	bne	15430 <__adddf3+0x2b8>
   1541c:	e1b00080 	lsls	r0, r0, #1
   15420:	e0b11001 	adcs	r1, r1, r1
   15424:	23811102 	orrcs	r1, r1, #-2147483648	; 0x80000000
   15428:	e8bd4030 	pop	{r4, r5, lr}
   1542c:	e12fff1e 	bx	lr
   15430:	e2944501 	adds	r4, r4, #4194304	; 0x400000
   15434:	32811601 	addcc	r1, r1, #1048576	; 0x100000
   15438:	38bd4030 	popcc	{r4, r5, lr}
   1543c:	312fff1e 	bxcc	lr
   15440:	e2015102 	and	r5, r1, #-2147483648	; 0x80000000
   15444:	e385147f 	orr	r1, r5, #2130706432	; 0x7f000000
   15448:	e381160f 	orr	r1, r1, #15728640	; 0xf00000
   1544c:	e3a00000 	mov	r0, #0
   15450:	e8bd4030 	pop	{r4, r5, lr}
   15454:	e12fff1e 	bx	lr
   15458:	e1f0cac4 	mvns	ip, r4, asr #21
   1545c:	11a01003 	movne	r1, r3
   15460:	11a00002 	movne	r0, r2
   15464:	01f0cac5 	mvnseq	ip, r5, asr #21
   15468:	11a03001 	movne	r3, r1
   1546c:	11a02000 	movne	r2, r0
   15470:	e1904601 	orrs	r4, r0, r1, lsl #12
   15474:	01925603 	orrseq	r5, r2, r3, lsl #12
   15478:	01310003 	teqeq	r1, r3
   1547c:	13811702 	orrne	r1, r1, #524288	; 0x80000
   15480:	e8bd4030 	pop	{r4, r5, lr}
   15484:	e12fff1e 	bx	lr

00015488 <__aeabi_ui2d>:
   15488:	e3300000 	teq	r0, #0
   1548c:	03a01000 	moveq	r1, #0
   15490:	012fff1e 	bxeq	lr
   15494:	e92d4030 	push	{r4, r5, lr}
   15498:	e3a04b01 	mov	r4, #1024	; 0x400
   1549c:	e2844032 	add	r4, r4, #50	; 0x32
   154a0:	e3a05000 	mov	r5, #0
   154a4:	e3a01000 	mov	r1, #0
   154a8:	eaffff86 	b	152c8 <__adddf3+0x150>

000154ac <__aeabi_i2d>:
   154ac:	e3300000 	teq	r0, #0
   154b0:	03a01000 	moveq	r1, #0
   154b4:	012fff1e 	bxeq	lr
   154b8:	e92d4030 	push	{r4, r5, lr}
   154bc:	e3a04b01 	mov	r4, #1024	; 0x400
   154c0:	e2844032 	add	r4, r4, #50	; 0x32
   154c4:	e2105102 	ands	r5, r0, #-2147483648	; 0x80000000
   154c8:	42600000 	rsbmi	r0, r0, #0
   154cc:	e3a01000 	mov	r1, #0
   154d0:	eaffff7c 	b	152c8 <__adddf3+0x150>

000154d4 <__aeabi_f2d>:
   154d4:	e1b02080 	lsls	r2, r0, #1
   154d8:	e1a011c2 	asr	r1, r2, #3
   154dc:	e1a01061 	rrx	r1, r1
   154e0:	e1a00e02 	lsl	r0, r2, #28
   154e4:	121234ff 	andsne	r3, r2, #-16777216	; 0xff000000
   154e8:	133304ff 	teqne	r3, #-16777216	; 0xff000000
   154ec:	1221130e 	eorne	r1, r1, #939524096	; 0x38000000
   154f0:	112fff1e 	bxne	lr
   154f4:	e3320000 	teq	r2, #0
   154f8:	133304ff 	teqne	r3, #-16777216	; 0xff000000
   154fc:	012fff1e 	bxeq	lr
   15500:	e92d4030 	push	{r4, r5, lr}
   15504:	e3a04d0e 	mov	r4, #896	; 0x380
   15508:	e2015102 	and	r5, r1, #-2147483648	; 0x80000000
   1550c:	e3c11102 	bic	r1, r1, #-2147483648	; 0x80000000
   15510:	eaffff6c 	b	152c8 <__adddf3+0x150>

00015514 <__aeabi_ul2d>:
   15514:	e1902001 	orrs	r2, r0, r1
   15518:	012fff1e 	bxeq	lr
   1551c:	e92d4030 	push	{r4, r5, lr}
   15520:	e3a05000 	mov	r5, #0
   15524:	ea000006 	b	15544 <__aeabi_l2d+0x1c>

00015528 <__aeabi_l2d>:
   15528:	e1902001 	orrs	r2, r0, r1
   1552c:	012fff1e 	bxeq	lr
   15530:	e92d4030 	push	{r4, r5, lr}
   15534:	e2115102 	ands	r5, r1, #-2147483648	; 0x80000000
   15538:	5a000001 	bpl	15544 <__aeabi_l2d+0x1c>
   1553c:	e2700000 	rsbs	r0, r0, #0
   15540:	e2e11000 	rsc	r1, r1, #0
   15544:	e3a04b01 	mov	r4, #1024	; 0x400
   15548:	e2844032 	add	r4, r4, #50	; 0x32
   1554c:	e1b0cb21 	lsrs	ip, r1, #22
   15550:	0affff44 	beq	15268 <__adddf3+0xf0>
   15554:	e3a02003 	mov	r2, #3
   15558:	e1b0c1ac 	lsrs	ip, ip, #3
   1555c:	12822003 	addne	r2, r2, #3
   15560:	e1b0c1ac 	lsrs	ip, ip, #3
   15564:	12822003 	addne	r2, r2, #3
   15568:	e08221ac 	add	r2, r2, ip, lsr #3
   1556c:	e2623020 	rsb	r3, r2, #32
   15570:	e1a0c310 	lsl	ip, r0, r3
   15574:	e1a00230 	lsr	r0, r0, r2
   15578:	e1800311 	orr	r0, r0, r1, lsl r3
   1557c:	e1a01231 	lsr	r1, r1, r2
   15580:	e0844002 	add	r4, r4, r2
   15584:	eaffff37 	b	15268 <__adddf3+0xf0>

00015588 <__aeabi_dmul>:
   15588:	e92d4070 	push	{r4, r5, r6, lr}
   1558c:	e3a0c0ff 	mov	ip, #255	; 0xff
   15590:	e38ccc07 	orr	ip, ip, #1792	; 0x700
   15594:	e01c4a21 	ands	r4, ip, r1, lsr #20
   15598:	101c5a23 	andsne	r5, ip, r3, lsr #20
   1559c:	1134000c 	teqne	r4, ip
   155a0:	1135000c 	teqne	r5, ip
   155a4:	0b000075 	bleq	15780 <__aeabi_dmul+0x1f8>
   155a8:	e0844005 	add	r4, r4, r5
   155ac:	e0216003 	eor	r6, r1, r3
   155b0:	e1c11a8c 	bic	r1, r1, ip, lsl #21
   155b4:	e1c33a8c 	bic	r3, r3, ip, lsl #21
   155b8:	e1905601 	orrs	r5, r0, r1, lsl #12
   155bc:	11925603 	orrsne	r5, r2, r3, lsl #12
   155c0:	e3811601 	orr	r1, r1, #1048576	; 0x100000
   155c4:	e3833601 	orr	r3, r3, #1048576	; 0x100000
   155c8:	0a00001d 	beq	15644 <__aeabi_dmul+0xbc>
   155cc:	e08ec290 	umull	ip, lr, r0, r2
   155d0:	e3a05000 	mov	r5, #0
   155d4:	e0a5e291 	umlal	lr, r5, r1, r2
   155d8:	e2062102 	and	r2, r6, #-2147483648	; 0x80000000
   155dc:	e0a5e390 	umlal	lr, r5, r0, r3
   155e0:	e3a06000 	mov	r6, #0
   155e4:	e0a65391 	umlal	r5, r6, r1, r3
   155e8:	e33c0000 	teq	ip, #0
   155ec:	138ee001 	orrne	lr, lr, #1
   155f0:	e24440ff 	sub	r4, r4, #255	; 0xff
   155f4:	e3560c02 	cmp	r6, #512	; 0x200
   155f8:	e2c44c03 	sbc	r4, r4, #768	; 0x300
   155fc:	2a000002 	bcs	1560c <__aeabi_dmul+0x84>
   15600:	e1b0e08e 	lsls	lr, lr, #1
   15604:	e0b55005 	adcs	r5, r5, r5
   15608:	e0a66006 	adc	r6, r6, r6
   1560c:	e1821586 	orr	r1, r2, r6, lsl #11
   15610:	e1811aa5 	orr	r1, r1, r5, lsr #21
   15614:	e1a00585 	lsl	r0, r5, #11
   15618:	e1800aae 	orr	r0, r0, lr, lsr #21
   1561c:	e1a0e58e 	lsl	lr, lr, #11
   15620:	e254c0fd 	subs	ip, r4, #253	; 0xfd
   15624:	835c0c07 	cmphi	ip, #1792	; 0x700
   15628:	8a000011 	bhi	15674 <__aeabi_dmul+0xec>
   1562c:	e35e0102 	cmp	lr, #-2147483648	; 0x80000000
   15630:	01b0e0a0 	lsrseq	lr, r0, #1
   15634:	e2b00000 	adcs	r0, r0, #0
   15638:	e0a11a04 	adc	r1, r1, r4, lsl #20
   1563c:	e8bd4070 	pop	{r4, r5, r6, lr}
   15640:	e12fff1e 	bx	lr
   15644:	e2066102 	and	r6, r6, #-2147483648	; 0x80000000
   15648:	e1861001 	orr	r1, r6, r1
   1564c:	e1800002 	orr	r0, r0, r2
   15650:	e0211003 	eor	r1, r1, r3
   15654:	e05440ac 	subs	r4, r4, ip, lsr #1
   15658:	c074500c 	rsbsgt	r5, r4, ip
   1565c:	c1811a04 	orrgt	r1, r1, r4, lsl #20
   15660:	c8bd4070 	popgt	{r4, r5, r6, lr}
   15664:	c12fff1e 	bxgt	lr
   15668:	e3811601 	orr	r1, r1, #1048576	; 0x100000
   1566c:	e3a0e000 	mov	lr, #0
   15670:	e2544001 	subs	r4, r4, #1
   15674:	ca00005d 	bgt	157f0 <__aeabi_dmul+0x268>
   15678:	e3740036 	cmn	r4, #54	; 0x36
   1567c:	d3a00000 	movle	r0, #0
   15680:	d2011102 	andle	r1, r1, #-2147483648	; 0x80000000
   15684:	d8bd4070 	pople	{r4, r5, r6, lr}
   15688:	d12fff1e 	bxle	lr
   1568c:	e2644000 	rsb	r4, r4, #0
   15690:	e2544020 	subs	r4, r4, #32
   15694:	aa00001a 	bge	15704 <__aeabi_dmul+0x17c>
   15698:	e294400c 	adds	r4, r4, #12
   1569c:	ca00000c 	bgt	156d4 <__aeabi_dmul+0x14c>
   156a0:	e2844014 	add	r4, r4, #20
   156a4:	e2645020 	rsb	r5, r4, #32
   156a8:	e1a03510 	lsl	r3, r0, r5
   156ac:	e1a00430 	lsr	r0, r0, r4
   156b0:	e1800511 	orr	r0, r0, r1, lsl r5
   156b4:	e2012102 	and	r2, r1, #-2147483648	; 0x80000000
   156b8:	e3c11102 	bic	r1, r1, #-2147483648	; 0x80000000
   156bc:	e0900fa3 	adds	r0, r0, r3, lsr #31
   156c0:	e0a21431 	adc	r1, r2, r1, lsr r4
   156c4:	e19ee083 	orrs	lr, lr, r3, lsl #1
   156c8:	01c00fa3 	biceq	r0, r0, r3, lsr #31
   156cc:	e8bd4070 	pop	{r4, r5, r6, lr}
   156d0:	e12fff1e 	bx	lr
   156d4:	e264400c 	rsb	r4, r4, #12
   156d8:	e2645020 	rsb	r5, r4, #32
   156dc:	e1a03410 	lsl	r3, r0, r4
   156e0:	e1a00530 	lsr	r0, r0, r5
   156e4:	e1800411 	orr	r0, r0, r1, lsl r4
   156e8:	e2011102 	and	r1, r1, #-2147483648	; 0x80000000
   156ec:	e0900fa3 	adds	r0, r0, r3, lsr #31
   156f0:	e2a11000 	adc	r1, r1, #0
   156f4:	e19ee083 	orrs	lr, lr, r3, lsl #1
   156f8:	01c00fa3 	biceq	r0, r0, r3, lsr #31
   156fc:	e8bd4070 	pop	{r4, r5, r6, lr}
   15700:	e12fff1e 	bx	lr
   15704:	e2645020 	rsb	r5, r4, #32
   15708:	e18ee510 	orr	lr, lr, r0, lsl r5
   1570c:	e1a03430 	lsr	r3, r0, r4
   15710:	e1833511 	orr	r3, r3, r1, lsl r5
   15714:	e1a00431 	lsr	r0, r1, r4
   15718:	e2011102 	and	r1, r1, #-2147483648	; 0x80000000
   1571c:	e1c00431 	bic	r0, r0, r1, lsr r4
   15720:	e0800fa3 	add	r0, r0, r3, lsr #31
   15724:	e19ee083 	orrs	lr, lr, r3, lsl #1
   15728:	01c00fa3 	biceq	r0, r0, r3, lsr #31
   1572c:	e8bd4070 	pop	{r4, r5, r6, lr}
   15730:	e12fff1e 	bx	lr
   15734:	e3340000 	teq	r4, #0
   15738:	1a000008 	bne	15760 <__aeabi_dmul+0x1d8>
   1573c:	e2016102 	and	r6, r1, #-2147483648	; 0x80000000
   15740:	e1b00080 	lsls	r0, r0, #1
   15744:	e0a11001 	adc	r1, r1, r1
   15748:	e3110601 	tst	r1, #1048576	; 0x100000
   1574c:	02444001 	subeq	r4, r4, #1
   15750:	0afffffa 	beq	15740 <__aeabi_dmul+0x1b8>
   15754:	e1811006 	orr	r1, r1, r6
   15758:	e3350000 	teq	r5, #0
   1575c:	112fff1e 	bxne	lr
   15760:	e2036102 	and	r6, r3, #-2147483648	; 0x80000000
   15764:	e1b02082 	lsls	r2, r2, #1
   15768:	e0a33003 	adc	r3, r3, r3
   1576c:	e3130601 	tst	r3, #1048576	; 0x100000
   15770:	02455001 	subeq	r5, r5, #1
   15774:	0afffffa 	beq	15764 <__aeabi_dmul+0x1dc>
   15778:	e1833006 	orr	r3, r3, r6
   1577c:	e12fff1e 	bx	lr
   15780:	e134000c 	teq	r4, ip
   15784:	e00c5a23 	and	r5, ip, r3, lsr #20
   15788:	1135000c 	teqne	r5, ip
   1578c:	0a000007 	beq	157b0 <__aeabi_dmul+0x228>
   15790:	e1906081 	orrs	r6, r0, r1, lsl #1
   15794:	11926083 	orrsne	r6, r2, r3, lsl #1
   15798:	1affffe5 	bne	15734 <__aeabi_dmul+0x1ac>
   1579c:	e0211003 	eor	r1, r1, r3
   157a0:	e2011102 	and	r1, r1, #-2147483648	; 0x80000000
   157a4:	e3a00000 	mov	r0, #0
   157a8:	e8bd4070 	pop	{r4, r5, r6, lr}
   157ac:	e12fff1e 	bx	lr
   157b0:	e1906081 	orrs	r6, r0, r1, lsl #1
   157b4:	01a00002 	moveq	r0, r2
   157b8:	01a01003 	moveq	r1, r3
   157bc:	11926083 	orrsne	r6, r2, r3, lsl #1
   157c0:	0a000010 	beq	15808 <__aeabi_dmul+0x280>
   157c4:	e134000c 	teq	r4, ip
   157c8:	1a000001 	bne	157d4 <__aeabi_dmul+0x24c>
   157cc:	e1906601 	orrs	r6, r0, r1, lsl #12
   157d0:	1a00000c 	bne	15808 <__aeabi_dmul+0x280>
   157d4:	e135000c 	teq	r5, ip
   157d8:	1a000003 	bne	157ec <__aeabi_dmul+0x264>
   157dc:	e1926603 	orrs	r6, r2, r3, lsl #12
   157e0:	11a00002 	movne	r0, r2
   157e4:	11a01003 	movne	r1, r3
   157e8:	1a000006 	bne	15808 <__aeabi_dmul+0x280>
   157ec:	e0211003 	eor	r1, r1, r3
   157f0:	e2011102 	and	r1, r1, #-2147483648	; 0x80000000
   157f4:	e381147f 	orr	r1, r1, #2130706432	; 0x7f000000
   157f8:	e381160f 	orr	r1, r1, #15728640	; 0xf00000
   157fc:	e3a00000 	mov	r0, #0
   15800:	e8bd4070 	pop	{r4, r5, r6, lr}
   15804:	e12fff1e 	bx	lr
   15808:	e381147f 	orr	r1, r1, #2130706432	; 0x7f000000
   1580c:	e381173e 	orr	r1, r1, #16252928	; 0xf80000
   15810:	e8bd4070 	pop	{r4, r5, r6, lr}
   15814:	e12fff1e 	bx	lr

00015818 <__aeabi_ddiv>:
   15818:	e92d4070 	push	{r4, r5, r6, lr}
   1581c:	e3a0c0ff 	mov	ip, #255	; 0xff
   15820:	e38ccc07 	orr	ip, ip, #1792	; 0x700
   15824:	e01c4a21 	ands	r4, ip, r1, lsr #20
   15828:	101c5a23 	andsne	r5, ip, r3, lsr #20
   1582c:	1134000c 	teqne	r4, ip
   15830:	1135000c 	teqne	r5, ip
   15834:	0b00005e 	bleq	159b4 <__aeabi_ddiv+0x19c>
   15838:	e0444005 	sub	r4, r4, r5
   1583c:	e021e003 	eor	lr, r1, r3
   15840:	e1925603 	orrs	r5, r2, r3, lsl #12
   15844:	e1a01601 	lsl	r1, r1, #12
   15848:	0a00004c 	beq	15980 <__aeabi_ddiv+0x168>
   1584c:	e1a03603 	lsl	r3, r3, #12
   15850:	e3a05201 	mov	r5, #268435456	; 0x10000000
   15854:	e1853223 	orr	r3, r5, r3, lsr #4
   15858:	e1833c22 	orr	r3, r3, r2, lsr #24
   1585c:	e1a02402 	lsl	r2, r2, #8
   15860:	e1855221 	orr	r5, r5, r1, lsr #4
   15864:	e1855c20 	orr	r5, r5, r0, lsr #24
   15868:	e1a06400 	lsl	r6, r0, #8
   1586c:	e20e1102 	and	r1, lr, #-2147483648	; 0x80000000
   15870:	e1550003 	cmp	r5, r3
   15874:	01560002 	cmpeq	r6, r2
   15878:	e2a440fd 	adc	r4, r4, #253	; 0xfd
   1587c:	e2844c03 	add	r4, r4, #768	; 0x300
   15880:	2a000001 	bcs	1588c <__aeabi_ddiv+0x74>
   15884:	e1b030a3 	lsrs	r3, r3, #1
   15888:	e1a02062 	rrx	r2, r2
   1588c:	e0566002 	subs	r6, r6, r2
   15890:	e0c55003 	sbc	r5, r5, r3
   15894:	e1b030a3 	lsrs	r3, r3, #1
   15898:	e1a02062 	rrx	r2, r2
   1589c:	e3a00601 	mov	r0, #1048576	; 0x100000
   158a0:	e3a0c702 	mov	ip, #524288	; 0x80000
   158a4:	e056e002 	subs	lr, r6, r2
   158a8:	e0d5e003 	sbcs	lr, r5, r3
   158ac:	20466002 	subcs	r6, r6, r2
   158b0:	21a0500e 	movcs	r5, lr
   158b4:	2180000c 	orrcs	r0, r0, ip
   158b8:	e1b030a3 	lsrs	r3, r3, #1
   158bc:	e1a02062 	rrx	r2, r2
   158c0:	e056e002 	subs	lr, r6, r2
   158c4:	e0d5e003 	sbcs	lr, r5, r3
   158c8:	20466002 	subcs	r6, r6, r2
   158cc:	21a0500e 	movcs	r5, lr
   158d0:	218000ac 	orrcs	r0, r0, ip, lsr #1
   158d4:	e1b030a3 	lsrs	r3, r3, #1
   158d8:	e1a02062 	rrx	r2, r2
   158dc:	e056e002 	subs	lr, r6, r2
   158e0:	e0d5e003 	sbcs	lr, r5, r3
   158e4:	20466002 	subcs	r6, r6, r2
   158e8:	21a0500e 	movcs	r5, lr
   158ec:	2180012c 	orrcs	r0, r0, ip, lsr #2
   158f0:	e1b030a3 	lsrs	r3, r3, #1
   158f4:	e1a02062 	rrx	r2, r2
   158f8:	e056e002 	subs	lr, r6, r2
   158fc:	e0d5e003 	sbcs	lr, r5, r3
   15900:	20466002 	subcs	r6, r6, r2
   15904:	21a0500e 	movcs	r5, lr
   15908:	218001ac 	orrcs	r0, r0, ip, lsr #3
   1590c:	e195e006 	orrs	lr, r5, r6
   15910:	0a00000d 	beq	1594c <__aeabi_ddiv+0x134>
   15914:	e1a05205 	lsl	r5, r5, #4
   15918:	e1855e26 	orr	r5, r5, r6, lsr #28
   1591c:	e1a06206 	lsl	r6, r6, #4
   15920:	e1a03183 	lsl	r3, r3, #3
   15924:	e1833ea2 	orr	r3, r3, r2, lsr #29
   15928:	e1a02182 	lsl	r2, r2, #3
   1592c:	e1b0c22c 	lsrs	ip, ip, #4
   15930:	1affffdb 	bne	158a4 <__aeabi_ddiv+0x8c>
   15934:	e3110601 	tst	r1, #1048576	; 0x100000
   15938:	1a000006 	bne	15958 <__aeabi_ddiv+0x140>
   1593c:	e1811000 	orr	r1, r1, r0
   15940:	e3a00000 	mov	r0, #0
   15944:	e3a0c102 	mov	ip, #-2147483648	; 0x80000000
   15948:	eaffffd5 	b	158a4 <__aeabi_ddiv+0x8c>
   1594c:	e3110601 	tst	r1, #1048576	; 0x100000
   15950:	01811000 	orreq	r1, r1, r0
   15954:	03a00000 	moveq	r0, #0
   15958:	e254c0fd 	subs	ip, r4, #253	; 0xfd
   1595c:	835c0c07 	cmphi	ip, #1792	; 0x700
   15960:	8affff43 	bhi	15674 <__aeabi_dmul+0xec>
   15964:	e055c003 	subs	ip, r5, r3
   15968:	0056c002 	subseq	ip, r6, r2
   1596c:	01b0c0a0 	lsrseq	ip, r0, #1
   15970:	e2b00000 	adcs	r0, r0, #0
   15974:	e0a11a04 	adc	r1, r1, r4, lsl #20
   15978:	e8bd4070 	pop	{r4, r5, r6, lr}
   1597c:	e12fff1e 	bx	lr
   15980:	e20ee102 	and	lr, lr, #-2147483648	; 0x80000000
   15984:	e18e1621 	orr	r1, lr, r1, lsr #12
   15988:	e09440ac 	adds	r4, r4, ip, lsr #1
   1598c:	c074500c 	rsbsgt	r5, r4, ip
   15990:	c1811a04 	orrgt	r1, r1, r4, lsl #20
   15994:	c8bd4070 	popgt	{r4, r5, r6, lr}
   15998:	c12fff1e 	bxgt	lr
   1599c:	e3811601 	orr	r1, r1, #1048576	; 0x100000
   159a0:	e3a0e000 	mov	lr, #0
   159a4:	e2544001 	subs	r4, r4, #1
   159a8:	eaffff31 	b	15674 <__aeabi_dmul+0xec>
   159ac:	e185e006 	orr	lr, r5, r6
   159b0:	eaffff2f 	b	15674 <__aeabi_dmul+0xec>
   159b4:	e00c5a23 	and	r5, ip, r3, lsr #20
   159b8:	e134000c 	teq	r4, ip
   159bc:	0135000c 	teqeq	r5, ip
   159c0:	0affff90 	beq	15808 <__aeabi_dmul+0x280>
   159c4:	e134000c 	teq	r4, ip
   159c8:	1a000006 	bne	159e8 <__aeabi_ddiv+0x1d0>
   159cc:	e1904601 	orrs	r4, r0, r1, lsl #12
   159d0:	1affff8c 	bne	15808 <__aeabi_dmul+0x280>
   159d4:	e135000c 	teq	r5, ip
   159d8:	1affff83 	bne	157ec <__aeabi_dmul+0x264>
   159dc:	e1a00002 	mov	r0, r2
   159e0:	e1a01003 	mov	r1, r3
   159e4:	eaffff87 	b	15808 <__aeabi_dmul+0x280>
   159e8:	e135000c 	teq	r5, ip
   159ec:	1a000004 	bne	15a04 <__aeabi_ddiv+0x1ec>
   159f0:	e1925603 	orrs	r5, r2, r3, lsl #12
   159f4:	0affff68 	beq	1579c <__aeabi_dmul+0x214>
   159f8:	e1a00002 	mov	r0, r2
   159fc:	e1a01003 	mov	r1, r3
   15a00:	eaffff80 	b	15808 <__aeabi_dmul+0x280>
   15a04:	e1906081 	orrs	r6, r0, r1, lsl #1
   15a08:	11926083 	orrsne	r6, r2, r3, lsl #1
   15a0c:	1affff48 	bne	15734 <__aeabi_dmul+0x1ac>
   15a10:	e1904081 	orrs	r4, r0, r1, lsl #1
   15a14:	1affff74 	bne	157ec <__aeabi_dmul+0x264>
   15a18:	e1925083 	orrs	r5, r2, r3, lsl #1
   15a1c:	1affff5e 	bne	1579c <__aeabi_dmul+0x214>
   15a20:	eaffff78 	b	15808 <__aeabi_dmul+0x280>

00015a24 <__aeabi_d2f>:
   15a24:	e1a02081 	lsl	r2, r1, #1
   15a28:	e2523207 	subs	r3, r2, #1879048192	; 0x70000000
   15a2c:	2253c602 	subscs	ip, r3, #2097152	; 0x200000
   15a30:	227cc57f 	rsbscs	ip, ip, #532676608	; 0x1fc00000
   15a34:	9a000006 	bls	15a54 <__aeabi_d2f+0x30>
   15a38:	e201c102 	and	ip, r1, #-2147483648	; 0x80000000
   15a3c:	e1a02180 	lsl	r2, r0, #3
   15a40:	e18c0ea0 	orr	r0, ip, r0, lsr #29
   15a44:	e3520102 	cmp	r2, #-2147483648	; 0x80000000
   15a48:	e0a00103 	adc	r0, r0, r3, lsl #2
   15a4c:	03c00001 	biceq	r0, r0, #1
   15a50:	e12fff1e 	bx	lr
   15a54:	e3110101 	tst	r1, #1073741824	; 0x40000000
   15a58:	1a00000f 	bne	15a9c <__aeabi_d2f+0x78>
   15a5c:	e293262e 	adds	r2, r3, #48234496	; 0x2e00000
   15a60:	b2010102 	andlt	r0, r1, #-2147483648	; 0x80000000
   15a64:	b12fff1e 	bxlt	lr
   15a68:	e3811601 	orr	r1, r1, #1048576	; 0x100000
   15a6c:	e1a02aa2 	lsr	r2, r2, #21
   15a70:	e2622018 	rsb	r2, r2, #24
   15a74:	e262c020 	rsb	ip, r2, #32
   15a78:	e1b03c10 	lsls	r3, r0, ip
   15a7c:	e1a00230 	lsr	r0, r0, r2
   15a80:	13800001 	orrne	r0, r0, #1
   15a84:	e1a03581 	lsl	r3, r1, #11
   15a88:	e1a035a3 	lsr	r3, r3, #11
   15a8c:	e1800c13 	orr	r0, r0, r3, lsl ip
   15a90:	e1a03233 	lsr	r3, r3, r2
   15a94:	e1a03083 	lsl	r3, r3, #1
   15a98:	eaffffe6 	b	15a38 <__aeabi_d2f+0x14>
   15a9c:	e1f03ac2 	mvns	r3, r2, asr #21
   15aa0:	1a000003 	bne	15ab4 <__aeabi_d2f+0x90>
   15aa4:	e1903601 	orrs	r3, r0, r1, lsl #12
   15aa8:	13a0047f 	movne	r0, #2130706432	; 0x7f000000
   15aac:	13800503 	orrne	r0, r0, #12582912	; 0xc00000
   15ab0:	112fff1e 	bxne	lr
   15ab4:	e2010102 	and	r0, r1, #-2147483648	; 0x80000000
   15ab8:	e380047f 	orr	r0, r0, #2130706432	; 0x7f000000
   15abc:	e3800502 	orr	r0, r0, #8388608	; 0x800000
   15ac0:	e12fff1e 	bx	lr

Disassembly of section .rodata:

00015ac4 <OSUnMapTbl>:
   15ac4:	00010000 	andeq	r0, r1, r0
   15ac8:	00010002 	andeq	r0, r1, r2
   15acc:	00010003 	andeq	r0, r1, r3
   15ad0:	00010002 	andeq	r0, r1, r2
   15ad4:	00010004 	andeq	r0, r1, r4
   15ad8:	00010002 	andeq	r0, r1, r2
   15adc:	00010003 	andeq	r0, r1, r3
   15ae0:	00010002 	andeq	r0, r1, r2
   15ae4:	00010005 	andeq	r0, r1, r5
   15ae8:	00010002 	andeq	r0, r1, r2
   15aec:	00010003 	andeq	r0, r1, r3
   15af0:	00010002 	andeq	r0, r1, r2
   15af4:	00010004 	andeq	r0, r1, r4
   15af8:	00010002 	andeq	r0, r1, r2
   15afc:	00010003 	andeq	r0, r1, r3
   15b00:	00010002 	andeq	r0, r1, r2
   15b04:	00010006 	andeq	r0, r1, r6
   15b08:	00010002 	andeq	r0, r1, r2
   15b0c:	00010003 	andeq	r0, r1, r3
   15b10:	00010002 	andeq	r0, r1, r2
   15b14:	00010004 	andeq	r0, r1, r4
   15b18:	00010002 	andeq	r0, r1, r2
   15b1c:	00010003 	andeq	r0, r1, r3
   15b20:	00010002 	andeq	r0, r1, r2
   15b24:	00010005 	andeq	r0, r1, r5
   15b28:	00010002 	andeq	r0, r1, r2
   15b2c:	00010003 	andeq	r0, r1, r3
   15b30:	00010002 	andeq	r0, r1, r2
   15b34:	00010004 	andeq	r0, r1, r4
   15b38:	00010002 	andeq	r0, r1, r2
   15b3c:	00010003 	andeq	r0, r1, r3
   15b40:	00010002 	andeq	r0, r1, r2
   15b44:	00010007 	andeq	r0, r1, r7
   15b48:	00010002 	andeq	r0, r1, r2
   15b4c:	00010003 	andeq	r0, r1, r3
   15b50:	00010002 	andeq	r0, r1, r2
   15b54:	00010004 	andeq	r0, r1, r4
   15b58:	00010002 	andeq	r0, r1, r2
   15b5c:	00010003 	andeq	r0, r1, r3
   15b60:	00010002 	andeq	r0, r1, r2
   15b64:	00010005 	andeq	r0, r1, r5
   15b68:	00010002 	andeq	r0, r1, r2
   15b6c:	00010003 	andeq	r0, r1, r3
   15b70:	00010002 	andeq	r0, r1, r2
   15b74:	00010004 	andeq	r0, r1, r4
   15b78:	00010002 	andeq	r0, r1, r2
   15b7c:	00010003 	andeq	r0, r1, r3
   15b80:	00010002 	andeq	r0, r1, r2
   15b84:	00010006 	andeq	r0, r1, r6
   15b88:	00010002 	andeq	r0, r1, r2
   15b8c:	00010003 	andeq	r0, r1, r3
   15b90:	00010002 	andeq	r0, r1, r2
   15b94:	00010004 	andeq	r0, r1, r4
   15b98:	00010002 	andeq	r0, r1, r2
   15b9c:	00010003 	andeq	r0, r1, r3
   15ba0:	00010002 	andeq	r0, r1, r2
   15ba4:	00010005 	andeq	r0, r1, r5
   15ba8:	00010002 	andeq	r0, r1, r2
   15bac:	00010003 	andeq	r0, r1, r3
   15bb0:	00010002 	andeq	r0, r1, r2
   15bb4:	00010004 	andeq	r0, r1, r4
   15bb8:	00010002 	andeq	r0, r1, r2
   15bbc:	00010003 	andeq	r0, r1, r3
   15bc0:	00010002 	andeq	r0, r1, r2

00015bc4 <OSMapTbl>:
   15bc4:	08040201 	stmdaeq	r4, {r0, r9}
   15bc8:	80402010 	subhi	r2, r0, r0, lsl r0

00015bcc <intcRegs>:
   15bcc:	2000b200 	andcs	fp, r0, r0, lsl #4

00015bd0 <timerRegs>:
   15bd0:	2000b400 	andcs	fp, r0, r0, lsl #8
   15bd4:	75206e69 	strvc	r6, [r0, #-3689]!	; 0xfffff197
   15bd8:	41726573 	cmnmi	r2, r3, ror r5
   15bdc:	00327070 	eorseq	r7, r2, r0, ror r0
   15be0:	206d654e 	rsbcs	r6, sp, lr, asr #10
   15be4:	69532026 	ldmdbvs	r3, {r1, r2, r5, sp}^
   15be8:	6c6b6163 	stfvse	f6, [fp], #-396	; 0xfffffe74
   15bec:	203a6b69 	eorscs	r6, sl, r9, ror #22
   15bf0:	00000000 	andeq	r0, r0, r0
   15bf4:	0000000a 	andeq	r0, r0, sl
   15bf8:	61746164 	cmnvs	r4, r4, ror #2
   15bfc:	72726120 	rsbsvc	r6, r2, #32, 2
   15c00:	6e697669 	cdpvs	6, 6, cr7, cr9, cr9, {3}
   15c04:	000a2e67 	andeq	r2, sl, r7, ror #28
   15c08:	00000005 	andeq	r0, r0, r5
   15c0c:	00000000 	andeq	r0, r0, r0
   15c10:	00000005 	andeq	r0, r0, r5
   15c14:	00000000 	andeq	r0, r0, r0

Disassembly of section .data:

00015c18 <gpio_addr>:
   15c18:	20200000 	eorcs	r0, r0, r0

00015c1c <dht_mask>:
   15c1c:	00000200 	andeq	r0, r0, r0, lsl #4

00015c20 <digit>:
   15c20:	00000000 	andeq	r0, r0, r0
   15c24:	01010000 	mrseq	r0, (UNDEF: 1)
   15c28:	01000001 	tsteq	r0, r1
   15c2c:	01010101 	tsteq	r1, r1, lsl #2
   15c30:	00010000 	andeq	r0, r1, r0
   15c34:	01000100 	mrseq	r0, (UNDEF: 16)
   15c38:	00000000 	andeq	r0, r0, r0
   15c3c:	01000101 	tsteq	r0, r1, lsl #2
   15c40:	01000001 	tsteq	r0, r1
   15c44:	01000001 	tsteq	r0, r1
   15c48:	00000100 	andeq	r0, r0, r0, lsl #2
   15c4c:	01000001 	tsteq	r0, r1
   15c50:	00000100 	andeq	r0, r0, r0, lsl #2
   15c54:	01000000 	mrseq	r0, (UNDEF: 0)
   15c58:	01000000 	mrseq	r0, (UNDEF: 0)
   15c5c:	01010101 	tsteq	r1, r1, lsl #2
   15c60:	00000000 	andeq	r0, r0, r0
   15c64:	01000000 	mrseq	r0, (UNDEF: 0)
   15c68:	00000000 	andeq	r0, r0, r0
   15c6c:	01000001 	tsteq	r0, r1

00015c70 <node>:
   15c70:	00000008 	andeq	r0, r0, r8
   15c74:	00000017 	andeq	r0, r0, r7, lsl r0
   15c78:	00000012 	andeq	r0, r0, r2, lsl r0
   15c7c:	00000016 	andeq	r0, r0, r6, lsl r0

00015c80 <pin>:
   15c80:	00000019 	andeq	r0, r0, r9, lsl r0
   15c84:	0000000a 	andeq	r0, r0, sl
   15c88:	00000011 	andeq	r0, r0, r1, lsl r0
   15c8c:	00000003 	andeq	r0, r0, r3
   15c90:	00000002 	andeq	r0, r0, r2
   15c94:	00000018 	andeq	r0, r0, r8, lsl r0
   15c98:	0000001b 	andeq	r0, r0, fp, lsl r0
   15c9c:	00000004 	andeq	r0, r0, r4

Disassembly of section .bss:

00015ca0 <__bss_start>:
	...

00015cb4 <row_count>:
   15cb4:	00000000 	andeq	r0, r0, r0

00015cb8 <g_VectorTable>:
	...

00015ef8 <OSLockNesting>:
	...

00015ef9 <OSRunning>:
   15ef9:	00000000 	andeq	r0, r0, r0

00015efc <OSIdleCtr>:
   15efc:	00000000 	andeq	r0, r0, r0

00015f00 <OSPrioHighRdy>:
   15f00:	00000000 	andeq	r0, r0, r0

00015f04 <OSFlagTbl>:
	...

00015f40 <OSPrioCur>:
   15f40:	00000000 	andeq	r0, r0, r0

00015f44 <OSTCBList>:
   15f44:	00000000 	andeq	r0, r0, r0

00015f48 <OSMemTbl>:
	...

00015fac <OSTaskStatStk>:
	...

000167ac <OSCtxSwCtr>:
   167ac:	00000000 	andeq	r0, r0, r0

000167b0 <OSIdleCtrMax>:
   167b0:	00000000 	andeq	r0, r0, r0

000167b4 <OSTCBFreeList>:
   167b4:	00000000 	andeq	r0, r0, r0

000167b8 <OSCPUUsage>:
	...

000167b9 <OSTaskCtr>:
   167b9:	00000000 	andeq	r0, r0, r0

000167bc <OSMemFreeList>:
   167bc:	00000000 	andeq	r0, r0, r0

000167c0 <OSQTbl>:
	...

00016838 <OSTCBHighRdy>:
   16838:	00000000 	andeq	r0, r0, r0

0001683c <OSQFreeList>:
   1683c:	00000000 	andeq	r0, r0, r0

00016840 <OSRdyGrp>:
   16840:	00000000 	andeq	r0, r0, r0

00016844 <OSRdyTbl>:
	...

0001684c <OSEventFreeList>:
   1684c:	00000000 	andeq	r0, r0, r0

00016850 <OSIntExitY>:
	...

00016851 <OSIntNesting>:
   16851:	00000000 	andeq	r0, r0, r0

00016854 <OSTCBCur>:
   16854:	00000000 	andeq	r0, r0, r0

00016858 <OSTime>:
   16858:	00000000 	andeq	r0, r0, r0

0001685c <OSTaskIdleStk>:
	...

0001705c <OSEventTbl>:
	...

0001714c <OSTCBTbl>:
	...

000174c0 <OSFlagFreeList>:
   174c0:	00000000 	andeq	r0, r0, r0

000174c4 <OSStatRdy>:
   174c4:	00000000 	andeq	r0, r0, r0

000174c8 <OSTCBPrioTbl>:
	...

000175c8 <OSIdleCtrRun>:
   175c8:	00000000 	andeq	r0, r0, r0

000175cc <userAppTaskStk1>:
	...

0001856c <userAppTaskStk2>:
	...

Disassembly of section .ARM.attributes:

00000000 <.ARM.attributes>:
   0:	00003341 	andeq	r3, r0, r1, asr #6
   4:	61656100 	cmnvs	r5, r0, lsl #2
   8:	01006962 	tsteq	r0, r2, ror #18
   c:	00000029 	andeq	r0, r0, r9, lsr #32
  10:	4d524105 	ldfmie	f4, [r2, #-20]	; 0xffffffec
  14:	36373131 			; <UNDEFINED> instruction: 0x36373131
  18:	2d465a4a 	vstrcs	s11, [r6, #-296]	; 0xfffffed8
  1c:	07060053 	smlsdeq	r6, r3, r0, r0
  20:	01090108 	tsteq	r9, r8, lsl #2
  24:	01140412 	tsteq	r4, r2, lsl r4
  28:	03170115 	tsteq	r7, #1073741829	; 0x40000005
  2c:	021a0118 	andseq	r0, sl, #24, 2
  30:	01440122 	cmpeq	r4, r2, lsr #2

Disassembly of section .comment:

00000000 <.comment>:
   0:	3a434347 	bcc	10d0d24 <__bss_end+0x10b7818>
   4:	62552820 	subsvs	r2, r5, #32, 16	; 0x200000
   8:	75746e75 	ldrbvc	r6, [r4, #-3701]!	; 0xfffff18b
   c:	6e694c2f 	cdpvs	12, 6, cr4, cr9, cr15, {1}
  10:	206f7261 	rsbcs	r7, pc, r1, ror #4
  14:	2e372e34 	mrccs	14, 1, r2, cr7, cr4, {1}
  18:	75322d34 	ldrvc	r2, [r2, #-3380]!	; 0xfffff2cc
  1c:	746e7562 	strbtvc	r7, [lr], #-1378	; 0xfffffa9e
  20:	20293175 	eorcs	r3, r9, r5, ror r1
  24:	2e372e34 	mrccs	14, 1, r2, cr7, cr4, {1}
  28:	43470034 	movtmi	r0, #28724	; 0x7034
  2c:	28203a43 	stmdacs	r0!, {r0, r1, r6, r9, fp, ip, sp}
  30:	29554e47 	ldmdbcs	r5, {r0, r1, r2, r6, r9, sl, fp, lr}^
  34:	372e3420 	strcc	r3, [lr, -r0, lsr #8]!
  38:	Address 0x0000000000000038 is out of bounds.


Disassembly of section .debug_info:

00000000 <.debug_info>:
   0:	00000132 	andeq	r0, r0, r2, lsr r1
   4:	00000002 	andeq	r0, r0, r2
   8:	01040000 	mrseq	r0, (UNDEF: 4)
   c:	00000021 	andeq	r0, r0, r1, lsr #32
  10:	0000ce01 	andeq	ip, r0, r1, lsl #28
  14:	00006f00 	andeq	r6, r0, r0, lsl #30
  18:	014e6800 	cmpeq	lr, r0, lsl #16
  1c:	014f5c00 	cmpeq	pc, r0, lsl #24
  20:	00000000 	andeq	r0, r0, r0
  24:	06010200 	streq	r0, [r1], -r0, lsl #4
  28:	00000050 	andeq	r0, r0, r0, asr r0
  2c:	4e080102 	adfmie	f0, f0, f2
  30:	02000000 	andeq	r0, r0, #0
  34:	01190502 	tsteq	r9, r2, lsl #10
  38:	02020000 	andeq	r0, r2, #0
  3c:	0000bb07 	andeq	fp, r0, r7, lsl #22
  40:	05040300 	streq	r0, [r4, #-768]	; 0xfffffd00
  44:	00746e69 	rsbseq	r6, r4, r9, ror #28
  48:	3c070402 	cfstrscc	mvf0, [r7], {2}
  4c:	02000000 	andeq	r0, r0, #0
  50:	00000508 	andeq	r0, r0, r8, lsl #10
  54:	08020000 	stmdaeq	r2, {}	; <UNPREDICTABLE>
  58:	00003207 	andeq	r3, r0, r7, lsl #4
  5c:	05040200 	streq	r0, [r4, #-512]	; 0xfffffe00
  60:	00000005 	andeq	r0, r0, r5
  64:	23070402 	movwcs	r0, #29698	; 0x7402
  68:	04000001 	streq	r0, [r0], #-1
  6c:	07040204 	streq	r0, [r4, -r4, lsl #4]
  70:	00000037 	andeq	r0, r0, r7, lsr r0
  74:	007a0405 	rsbseq	r0, sl, r5, lsl #8
  78:	01020000 	mrseq	r0, (UNDEF: 2)
  7c:	00005708 	andeq	r5, r0, r8, lsl #14
  80:	87040500 	strhi	r0, [r4, -r0, lsl #10]
  84:	06000000 	streq	r0, [r0], -r0
  88:	0000007a 	andeq	r0, r0, sl, ror r0
  8c:	00001a07 	andeq	r1, r0, r7, lsl #20
  90:	48d50300 	ldmmi	r5, {r8, r9}^
  94:	08000000 	stmdaeq	r0, {}	; <UNPREDICTABLE>
  98:	00006801 	andeq	r6, r0, r1, lsl #16
  9c:	01190200 	tsteq	r9, r0, lsl #4
  a0:	0000006b 	andeq	r0, r0, fp, rrx
  a4:	00014e68 	andeq	r4, r1, r8, ror #28
  a8:	00014f5c 	andeq	r4, r1, ip, asr pc
  ac:	00000000 	andeq	r0, r0, r0
  b0:	00011d01 	andeq	r1, r1, r1, lsl #26
  b4:	00490900 	subeq	r0, r9, r0, lsl #18
  b8:	35010000 	strcc	r0, [r1, #-0]
  bc:	0000006b 	andeq	r0, r0, fp, rrx
  c0:	2d0a5001 	stccs	0, cr5, [sl, #-4]
  c4:	01000000 	mrseq	r0, (UNDEF: 0)
  c8:	00011d35 	andeq	r1, r1, r5, lsr sp
  cc:	00002000 	andeq	r2, r0, r0
  d0:	01140a00 	tsteq	r4, r0, lsl #20
  d4:	35010000 	strcc	r0, [r1, #-0]
  d8:	0000008c 	andeq	r0, r0, ip, lsl #1
  dc:	00000073 	andeq	r0, r0, r3, ror r0
  e0:	7473640b 	ldrbtvc	r6, [r3], #-1035	; 0xfffffbf5
  e4:	74470100 	strbvc	r0, [r7], #-256	; 0xffffff00
  e8:	fe000000 	cdp2	0, 0, cr0, cr0, cr0, {0}
  ec:	0b000000 	bleq	f4 <_start-0x7f0c>
  f0:	00637273 	rsbeq	r7, r3, r3, ror r2
  f4:	00814801 	addeq	r4, r1, r1, lsl #16
  f8:	01270000 	teqeq	r7, r0
  fc:	0e0c0000 	cdpeq	0, 0, cr0, cr12, cr0, {0}
 100:	01000000 	mrseq	r0, (UNDEF: 0)
 104:	00012449 	andeq	r2, r1, r9, asr #8
 108:	00017900 	andeq	r7, r1, r0, lsl #18
 10c:	005c0c00 	subseq	r0, ip, r0, lsl #24
 110:	4a010000 	bmi	40118 <__bss_end+0x26c0c>
 114:	0000012a 	andeq	r0, r0, sl, lsr #2
 118:	000001d4 	ldrdeq	r0, [r0], -r4
 11c:	23040500 	movwcs	r0, #17664	; 0x4500
 120:	0d000001 	stceq	0, cr0, [r0, #-4]
 124:	005d0405 	subseq	r0, sp, r5, lsl #8
 128:	04050000 	streq	r0, [r5], #-0
 12c:	00000130 	andeq	r0, r0, r0, lsr r1
 130:	00005d06 	andeq	r5, r0, r6, lsl #26
 134:	01180000 	tsteq	r8, r0
 138:	00020000 	andeq	r0, r2, r0
 13c:	000000ab 	andeq	r0, r0, fp, lsr #1
 140:	00210104 	eoreq	r0, r1, r4, lsl #2
 144:	80010000 	andhi	r0, r1, r0
 148:	2c000001 	stccs	0, cr0, [r0], {1}
 14c:	5c000001 	stcpl	0, cr0, [r0], {1}
 150:	5400014f 	strpl	r0, [r0], #-335	; 0xfffffeb1
 154:	8b000150 	blhi	69c <_start-0x7964>
 158:	02000001 	andeq	r0, r0, #1
 15c:	00500601 	subseq	r0, r0, r1, lsl #12
 160:	01020000 	mrseq	r0, (UNDEF: 2)
 164:	00004e08 	andeq	r4, r0, r8, lsl #28
 168:	05020200 	streq	r0, [r2, #-512]	; 0xfffffe00
 16c:	00000119 	andeq	r0, r0, r9, lsl r1
 170:	bb070202 	bllt	1c0980 <__bss_end+0x1a7474>
 174:	03000000 	movweq	r0, #0
 178:	6e690504 	cdpvs	5, 6, cr0, cr9, cr4, {0}
 17c:	04020074 	streq	r0, [r2], #-116	; 0xffffff8c
 180:	00003c07 	andeq	r3, r0, r7, lsl #24
 184:	05080200 	streq	r0, [r8, #-512]	; 0xfffffe00
 188:	00000000 	andeq	r0, r0, r0
 18c:	32070802 	andcc	r0, r7, #131072	; 0x20000
 190:	02000000 	andeq	r0, r0, #0
 194:	00050504 	andeq	r0, r5, r4, lsl #10
 198:	04020000 	streq	r0, [r2], #-0
 19c:	00012307 	andeq	r2, r1, r7, lsl #6
 1a0:	02040400 	andeq	r0, r4, #0, 8
 1a4:	00370704 	eorseq	r0, r7, r4, lsl #14
 1a8:	04050000 	streq	r0, [r5], #-0
 1ac:	0000007a 	andeq	r0, r0, sl, ror r0
 1b0:	57080102 	strpl	r0, [r8, -r2, lsl #2]
 1b4:	06000000 	streq	r0, [r0], -r0
 1b8:	0000001a 	andeq	r0, r0, sl, lsl r0
 1bc:	0048d503 	subeq	sp, r8, r3, lsl #10
 1c0:	01070000 	mrseq	r0, (UNDEF: 7)
 1c4:	000001b9 			; <UNDEFINED> instruction: 0x000001b9
 1c8:	6b011b02 	blvs	46dd8 <__bss_end+0x2d8cc>
 1cc:	5c000000 	stcpl	0, cr0, [r0], {-0}
 1d0:	5400014f 	strpl	r0, [r0], #-335	; 0xfffffeb1
 1d4:	31000150 	tstcc	r0, r0, asr r1
 1d8:	01000002 	tsteq	r0, r2
 1dc:	00000115 	andeq	r0, r0, r5, lsl r1
 1e0:	01006d08 	tsteq	r0, r8, lsl #26
 1e4:	00006b2b 	andeq	r6, r0, fp, lsr #22
 1e8:	09500100 	ldmdbeq	r0, {r8}^
 1ec:	2b010063 	blcs	40380 <__bss_end+0x26e74>
 1f0:	00000041 	andeq	r0, r0, r1, asr #32
 1f4:	00000251 	andeq	r0, r0, r1, asr r2
 1f8:	01006e09 	tsteq	r0, r9, lsl #28
 1fc:	0000812b 	andeq	r8, r0, fp, lsr #2
 200:	00027d00 	andeq	r7, r2, r0, lsl #26
 204:	00730a00 	rsbseq	r0, r3, r0, lsl #20
 208:	00743001 	rsbseq	r3, r4, r1
 20c:	02ec0000 	rsceq	r0, ip, #0
 210:	690a0000 	stmdbvs	sl, {}	; <UNPREDICTABLE>
 214:	41330100 	teqmi	r3, r0, lsl #2
 218:	43000000 	movwmi	r0, #0
 21c:	0b000003 	bleq	230 <_start-0x7dd0>
 220:	000001c0 	andeq	r0, r0, r0, asr #3
 224:	006d3401 	rsbeq	r3, sp, r1, lsl #8
 228:	03580000 	cmpeq	r8, #0
 22c:	730b0000 	movwvc	r0, #45056	; 0xb000
 230:	01000001 	tsteq	r0, r1
 234:	00011535 	andeq	r1, r1, r5, lsr r5
 238:	00036b00 	andeq	r6, r3, r0, lsl #22
 23c:	00640a00 	rsbeq	r0, r4, r0, lsl #20
 240:	00483601 	subeq	r3, r8, r1, lsl #12
 244:	03d10000 	bicseq	r0, r1, #0
 248:	05000000 	streq	r0, [r0, #-0]
 24c:	00006d04 	andeq	r6, r0, r4, lsl #26
 250:	008d0000 	addeq	r0, sp, r0
 254:	00020000 	andeq	r0, r2, r0
 258:	0000014a 	andeq	r0, r0, sl, asr #2
 25c:	03040104 	movweq	r0, #16644	; 0x4104
 260:	50540000 	subspl	r0, r4, r0
 264:	51680001 	cmnpl	r8, r1
 268:	2e2e0001 	cdpcs	0, 2, cr0, cr14, cr1, {0}
 26c:	2f2e2e2f 	svccs	0x002e2e2f
 270:	672f2e2e 	strvs	r2, [pc, -lr, lsr #28]!
 274:	342d6363 	strtcc	r6, [sp], #-867	; 0xfffffc9d
 278:	322e372e 	eorcc	r3, lr, #12058624	; 0xb80000
 27c:	62696c2f 	rsbvs	r6, r9, #12032	; 0x2f00
 280:	2f636367 	svccs	0x00636367
 284:	666e6f63 	strbtvs	r6, [lr], -r3, ror #30
 288:	612f6769 	teqvs	pc, r9, ror #14
 28c:	6c2f6d72 	stcvs	13, cr6, [pc], #-456	; cc <_start-0x7f34>
 290:	66316269 	ldrtvs	r6, [r1], -r9, ror #4
 294:	73636e75 	cmnvc	r3, #1872	; 0x750
 298:	4300532e 	movwmi	r5, #814	; 0x32e
 29c:	736d5c3a 	cmnvc	sp, #14848	; 0x3a00
 2a0:	315c7379 	cmpcc	ip, r9, ror r3
 2a4:	685c302e 	ldmdavs	ip, {r1, r2, r3, r5, ip, sp}^
 2a8:	5c656d6f 	stclpl	13, cr6, [r5], #-444	; 0xfffffe44
 2ac:	61676179 	smcvs	30233	; 0x7619
 2b0:	5c6f7472 	cfstrdpl	mvd7, [pc], #-456	; f0 <_start-0x7f10>
 2b4:	2d636367 	stclcs	3, cr6, [r3, #-412]!	; 0xfffffe64
 2b8:	6c697562 	cfstr64vs	mvdx7, [r9], #-392	; 0xfffffe78
 2bc:	72615c64 	rsbvc	r5, r1, #100, 24	; 0x6400
 2c0:	6f6e2d6d 	svcvs	0x006e2d6d
 2c4:	652d656e 	strvs	r6, [sp, #-1390]!	; 0xfffffa92
 2c8:	5c696261 	sfmpl	f6, 2, [r9], #-388	; 0xfffffe7c
 2cc:	6762696c 	strbvs	r6, [r2, -ip, ror #18]!
 2d0:	47006363 	strmi	r6, [r0, -r3, ror #6]
 2d4:	4120554e 	teqmi	r0, lr, asr #10
 2d8:	2e322053 	mrccs	0, 1, r2, cr2, cr3, {2}
 2dc:	312e3332 	teqcc	lr, r2, lsr r3
 2e0:	8d800100 	stfhis	f0, [r0]
 2e4:	02000000 	andeq	r0, r0, #0
 2e8:	00015e00 	andeq	r5, r1, r0, lsl #28
 2ec:	8e010400 	cfcpyshi	mvf0, mvf1
 2f0:	68000003 	stmdavs	r0, {r0, r1}
 2f4:	6c000151 	stfvss	f0, [r0], {81}	; 0x51
 2f8:	2e000151 	mcrcs	1, 0, r0, cr0, cr1, {2}
 2fc:	2e2e2f2e 	cdpcs	15, 2, cr2, cr14, cr14, {1}
 300:	2f2e2e2f 	svccs	0x002e2e2f
 304:	2d636367 	stclcs	3, cr6, [r3, #-412]!	; 0xfffffe64
 308:	2e372e34 	mrccs	14, 1, r2, cr7, cr4, {1}
 30c:	696c2f32 	stmdbvs	ip!, {r1, r4, r5, r8, r9, sl, fp, sp}^
 310:	63636762 	cmnvs	r3, #25690112	; 0x1880000
 314:	6e6f632f 	cdpvs	3, 6, cr6, cr15, cr15, {1}
 318:	2f676966 	svccs	0x00676966
 31c:	2f6d7261 	svccs	0x006d7261
 320:	3162696c 	cmncc	r2, ip, ror #18
 324:	636e7566 	cmnvs	lr, #427819008	; 0x19800000
 328:	00532e73 	subseq	r2, r3, r3, ror lr
 32c:	6d5c3a43 	vldrvs	s7, [ip, #-268]	; 0xfffffef4
 330:	5c737973 	ldclpl	9, cr7, [r3], #-460	; 0xfffffe34
 334:	5c302e31 	ldcpl	14, cr2, [r0], #-196	; 0xffffff3c
 338:	656d6f68 	strbvs	r6, [sp, #-3944]!	; 0xfffff098
 33c:	6761795c 			; <UNDEFINED> instruction: 0x6761795c
 340:	6f747261 	svcvs	0x00747261
 344:	6363675c 	cmnvs	r3, #92, 14	; 0x1700000
 348:	6975622d 	ldmdbvs	r5!, {r0, r2, r3, r5, r9, sp, lr}^
 34c:	615c646c 	cmpvs	ip, ip, ror #8
 350:	6e2d6d72 	mcrvs	13, 1, r6, cr13, cr2, {3}
 354:	2d656e6f 	stclcs	14, cr6, [r5, #-444]!	; 0xfffffe44
 358:	69626165 	stmdbvs	r2!, {r0, r2, r5, r6, r8, sp, lr}^
 35c:	62696c5c 	rsbvs	r6, r9, #92, 24	; 0x5c00
 360:	00636367 	rsbeq	r6, r3, r7, ror #6
 364:	20554e47 	subscs	r4, r5, r7, asr #28
 368:	32205341 	eorcc	r5, r0, #67108865	; 0x4000001
 36c:	2e33322e 	cdpcs	2, 3, cr3, cr3, cr14, {1}
 370:	80010031 	andhi	r0, r1, r1, lsr r0
 374:	0000008e 	andeq	r0, r0, lr, lsl #1
 378:	01720002 	cmneq	r2, r2
 37c:	01040000 	mrseq	r0, (UNDEF: 4)
 380:	000003ef 	andeq	r0, r0, pc, ror #7
 384:	0001516c 	andeq	r5, r1, ip, ror #2
 388:	00015588 	andeq	r5, r1, r8, lsl #11
 38c:	2e2f2e2e 	cdpcs	14, 2, cr2, cr15, cr14, {1}
 390:	2e2e2f2e 	cdpcs	15, 2, cr2, cr14, cr14, {1}
 394:	6363672f 	cmnvs	r3, #12320768	; 0xbc0000
 398:	372e342d 	strcc	r3, [lr, -sp, lsr #8]!
 39c:	6c2f322e 	sfmvs	f3, 4, [pc], #-184	; 2ec <_start-0x7d14>
 3a0:	63676269 	cmnvs	r7, #-1879048186	; 0x90000006
 3a4:	6f632f63 	svcvs	0x00632f63
 3a8:	6769666e 	strbvs	r6, [r9, -lr, ror #12]!
 3ac:	6d72612f 	ldfvse	f6, [r2, #-188]!	; 0xffffff44
 3b0:	6565692f 	strbvs	r6, [r5, #-2351]!	; 0xfffff6d1
 3b4:	34353765 	ldrtcc	r3, [r5], #-1893	; 0xfffff89b
 3b8:	2e66642d 	cdpcs	4, 6, cr6, cr6, cr13, {1}
 3bc:	3a430053 	bcc	10c0510 <__bss_end+0x10a7004>
 3c0:	79736d5c 	ldmdbvc	r3!, {r2, r3, r4, r6, r8, sl, fp, sp, lr}^
 3c4:	2e315c73 	mrccs	12, 1, r5, cr1, cr3, {3}
 3c8:	6f685c30 	svcvs	0x00685c30
 3cc:	795c656d 	ldmdbvc	ip, {r0, r2, r3, r5, r6, r8, sl, sp, lr}^
 3d0:	72616761 	rsbvc	r6, r1, #25427968	; 0x1840000
 3d4:	675c6f74 			; <UNDEFINED> instruction: 0x675c6f74
 3d8:	622d6363 	eorvs	r6, sp, #-1946157055	; 0x8c000001
 3dc:	646c6975 	strbtvs	r6, [ip], #-2421	; 0xfffff68b
 3e0:	6d72615c 	ldfvse	f6, [r2, #-368]!	; 0xfffffe90
 3e4:	6e6f6e2d 	cdpvs	14, 6, cr6, cr15, cr13, {1}
 3e8:	61652d65 	cmnvs	r5, r5, ror #26
 3ec:	6c5c6962 	mrrcvs	9, 6, r6, ip, cr2
 3f0:	63676269 	cmnvs	r7, #-1879048186	; 0x90000006
 3f4:	4e470063 	cdpmi	0, 4, cr0, cr7, cr3, {3}
 3f8:	53412055 	movtpl	r2, #4181	; 0x1055
 3fc:	322e3220 	eorcc	r3, lr, #32, 4
 400:	00312e33 	eorseq	r2, r1, r3, lsr lr
 404:	008e8001 	addeq	r8, lr, r1
 408:	00020000 	andeq	r0, r2, r0
 40c:	00000186 	andeq	r0, r0, r6, lsl #3
 410:	05570104 	ldrbeq	r0, [r7, #-260]	; 0xfffffefc
 414:	55880000 	strpl	r0, [r8]
 418:	5a240001 	bpl	900424 <__bss_end+0x8e6f18>
 41c:	2e2e0001 	cdpcs	0, 2, cr0, cr14, cr1, {0}
 420:	2f2e2e2f 	svccs	0x002e2e2f
 424:	672f2e2e 	strvs	r2, [pc, -lr, lsr #28]!
 428:	342d6363 	strtcc	r6, [sp], #-867	; 0xfffffc9d
 42c:	322e372e 	eorcc	r3, lr, #12058624	; 0xb80000
 430:	62696c2f 	rsbvs	r6, r9, #12032	; 0x2f00
 434:	2f636367 	svccs	0x00636367
 438:	666e6f63 	strbtvs	r6, [lr], -r3, ror #30
 43c:	612f6769 	teqvs	pc, r9, ror #14
 440:	692f6d72 	stmdbvs	pc!, {r1, r4, r5, r6, r8, sl, fp, sp, lr}	; <UNPREDICTABLE>
 444:	37656565 	strbcc	r6, [r5, -r5, ror #10]!
 448:	642d3435 	strtvs	r3, [sp], #-1077	; 0xfffffbcb
 44c:	00532e66 	subseq	r2, r3, r6, ror #28
 450:	6d5c3a43 	vldrvs	s7, [ip, #-268]	; 0xfffffef4
 454:	5c737973 	ldclpl	9, cr7, [r3], #-460	; 0xfffffe34
 458:	5c302e31 	ldcpl	14, cr2, [r0], #-196	; 0xffffff3c
 45c:	656d6f68 	strbvs	r6, [sp, #-3944]!	; 0xfffff098
 460:	6761795c 			; <UNDEFINED> instruction: 0x6761795c
 464:	6f747261 	svcvs	0x00747261
 468:	6363675c 	cmnvs	r3, #92, 14	; 0x1700000
 46c:	6975622d 	ldmdbvs	r5!, {r0, r2, r3, r5, r9, sp, lr}^
 470:	615c646c 	cmpvs	ip, ip, ror #8
 474:	6e2d6d72 	mcrvs	13, 1, r6, cr13, cr2, {3}
 478:	2d656e6f 	stclcs	14, cr6, [r5, #-444]!	; 0xfffffe44
 47c:	69626165 	stmdbvs	r2!, {r0, r2, r5, r6, r8, sp, lr}^
 480:	62696c5c 	rsbvs	r6, r9, #92, 24	; 0x5c00
 484:	00636367 	rsbeq	r6, r3, r7, ror #6
 488:	20554e47 	subscs	r4, r5, r7, asr #28
 48c:	32205341 	eorcc	r5, r0, #67108865	; 0x4000001
 490:	2e33322e 	cdpcs	2, 3, cr3, cr3, cr14, {1}
 494:	80010031 	andhi	r0, r1, r1, lsr r0
 498:	0000008e 	andeq	r0, r0, lr, lsl #1
 49c:	019a0002 	orrseq	r0, sl, r2
 4a0:	01040000 	mrseq	r0, (UNDEF: 4)
 4a4:	000006d7 	ldrdeq	r0, [r0], -r7
 4a8:	00015a24 	andeq	r5, r1, r4, lsr #20
 4ac:	00015ac4 	andeq	r5, r1, r4, asr #21
 4b0:	2e2f2e2e 	cdpcs	14, 2, cr2, cr15, cr14, {1}
 4b4:	2e2e2f2e 	cdpcs	15, 2, cr2, cr14, cr14, {1}
 4b8:	6363672f 	cmnvs	r3, #12320768	; 0xbc0000
 4bc:	372e342d 	strcc	r3, [lr, -sp, lsr #8]!
 4c0:	6c2f322e 	sfmvs	f3, 4, [pc], #-184	; 410 <_start-0x7bf0>
 4c4:	63676269 	cmnvs	r7, #-1879048186	; 0x90000006
 4c8:	6f632f63 	svcvs	0x00632f63
 4cc:	6769666e 	strbvs	r6, [r9, -lr, ror #12]!
 4d0:	6d72612f 	ldfvse	f6, [r2, #-188]!	; 0xffffff44
 4d4:	6565692f 	strbvs	r6, [r5, #-2351]!	; 0xfffff6d1
 4d8:	34353765 	ldrtcc	r3, [r5], #-1893	; 0xfffff89b
 4dc:	2e66642d 	cdpcs	4, 6, cr6, cr6, cr13, {1}
 4e0:	3a430053 	bcc	10c0634 <__bss_end+0x10a7128>
 4e4:	79736d5c 	ldmdbvc	r3!, {r2, r3, r4, r6, r8, sl, fp, sp, lr}^
 4e8:	2e315c73 	mrccs	12, 1, r5, cr1, cr3, {3}
 4ec:	6f685c30 	svcvs	0x00685c30
 4f0:	795c656d 	ldmdbvc	ip, {r0, r2, r3, r5, r6, r8, sl, sp, lr}^
 4f4:	72616761 	rsbvc	r6, r1, #25427968	; 0x1840000
 4f8:	675c6f74 			; <UNDEFINED> instruction: 0x675c6f74
 4fc:	622d6363 	eorvs	r6, sp, #-1946157055	; 0x8c000001
 500:	646c6975 	strbtvs	r6, [ip], #-2421	; 0xfffff68b
 504:	6d72615c 	ldfvse	f6, [r2, #-368]!	; 0xfffffe90
 508:	6e6f6e2d 	cdpvs	14, 6, cr6, cr15, cr13, {1}
 50c:	61652d65 	cmnvs	r5, r5, ror #26
 510:	6c5c6962 	mrrcvs	9, 6, r6, ip, cr2
 514:	63676269 	cmnvs	r7, #-1879048186	; 0x90000006
 518:	4e470063 	cdpmi	0, 4, cr0, cr7, cr3, {3}
 51c:	53412055 	movtpl	r2, #4181	; 0x1055
 520:	322e3220 	eorcc	r3, lr, #32, 4
 524:	00312e33 	eorseq	r2, r1, r3, lsr lr
 528:	Address 0x0000000000000528 is out of bounds.


Disassembly of section .debug_abbrev:

00000000 <.debug_abbrev>:
   0:	25011101 	strcs	r1, [r1, #-257]	; 0xfffffeff
   4:	030b130e 	movweq	r1, #45838	; 0xb30e
   8:	110e1b0e 	tstne	lr, lr, lsl #22
   c:	10011201 	andne	r1, r1, r1, lsl #4
  10:	02000006 	andeq	r0, r0, #6
  14:	0b0b0024 	bleq	2c00ac <__bss_end+0x2a6ba0>
  18:	0e030b3e 	vmoveq.16	d3[0], r0
  1c:	24030000 	strcs	r0, [r3], #-0
  20:	3e0b0b00 	vmlacc.f64	d0, d11, d0
  24:	0008030b 	andeq	r0, r8, fp, lsl #6
  28:	000f0400 	andeq	r0, pc, r0, lsl #8
  2c:	00000b0b 	andeq	r0, r0, fp, lsl #22
  30:	0b000f05 	bleq	3c4c <_start-0x43b4>
  34:	0013490b 	andseq	r4, r3, fp, lsl #18
  38:	00260600 	eoreq	r0, r6, r0, lsl #12
  3c:	00001349 	andeq	r1, r0, r9, asr #6
  40:	03001607 	movweq	r1, #1543	; 0x607
  44:	3b0b3a0e 	blcc	2ce884 <__bss_end+0x2b5378>
  48:	0013490b 	andseq	r4, r3, fp, lsl #18
  4c:	012e0800 	teqeq	lr, r0, lsl #16
  50:	0e030c3f 	mcreq	12, 0, r0, cr3, cr15, {1}
  54:	0b3b0b3a 	bleq	ec2d44 <__bss_end+0xea9838>
  58:	13490c27 	movtne	r0, #39975	; 0x9c27
  5c:	01120111 	tsteq	r2, r1, lsl r1
  60:	42970640 	addsmi	r0, r7, #64, 12	; 0x4000000
  64:	0013010c 	andseq	r0, r3, ip, lsl #2
  68:	00050900 	andeq	r0, r5, r0, lsl #18
  6c:	0b3a0e03 	bleq	e83880 <__bss_end+0xe6a374>
  70:	13490b3b 	movtne	r0, #39739	; 0x9b3b
  74:	00000a02 	andeq	r0, r0, r2, lsl #20
  78:	0300050a 	movweq	r0, #1290	; 0x50a
  7c:	3b0b3a0e 	blcc	2ce8bc <__bss_end+0x2b53b0>
  80:	0213490b 	andseq	r4, r3, #180224	; 0x2c000
  84:	0b000006 	bleq	a4 <_start-0x7f5c>
  88:	08030034 	stmdaeq	r3, {r2, r4, r5}
  8c:	0b3b0b3a 	bleq	ec2d7c <__bss_end+0xea9870>
  90:	06021349 	streq	r1, [r2], -r9, asr #6
  94:	340c0000 	strcc	r0, [ip], #-0
  98:	3a0e0300 	bcc	380ca0 <__bss_end+0x367794>
  9c:	490b3b0b 	stmdbmi	fp, {r0, r1, r3, r8, r9, fp, ip, sp}
  a0:	00060213 	andeq	r0, r6, r3, lsl r2
  a4:	00260d00 	eoreq	r0, r6, r0, lsl #26
  a8:	01000000 	mrseq	r0, (UNDEF: 0)
  ac:	0e250111 	mcreq	1, 1, r0, cr5, cr1, {0}
  b0:	0e030b13 	vmoveq.32	d3[0], r0
  b4:	01110e1b 	tsteq	r1, fp, lsl lr
  b8:	06100112 			; <UNDEFINED> instruction: 0x06100112
  bc:	24020000 	strcs	r0, [r2], #-0
  c0:	3e0b0b00 	vmlacc.f64	d0, d11, d0
  c4:	000e030b 	andeq	r0, lr, fp, lsl #6
  c8:	00240300 	eoreq	r0, r4, r0, lsl #6
  cc:	0b3e0b0b 	bleq	f82d00 <__bss_end+0xf697f4>
  d0:	00000803 	andeq	r0, r0, r3, lsl #16
  d4:	0b000f04 	bleq	3cec <_start-0x4314>
  d8:	0500000b 	streq	r0, [r0, #-11]
  dc:	0b0b000f 	bleq	2c0120 <__bss_end+0x2a6c14>
  e0:	00001349 	andeq	r1, r0, r9, asr #6
  e4:	03001606 	movweq	r1, #1542	; 0x606
  e8:	3b0b3a0e 	blcc	2ce928 <__bss_end+0x2b541c>
  ec:	0013490b 	andseq	r4, r3, fp, lsl #18
  f0:	012e0700 	teqeq	lr, r0, lsl #14
  f4:	0e030c3f 	mcreq	12, 0, r0, cr3, cr15, {1}
  f8:	0b3b0b3a 	bleq	ec2de8 <__bss_end+0xea98dc>
  fc:	13490c27 	movtne	r0, #39975	; 0x9c27
 100:	01120111 	tsteq	r2, r1, lsl r1
 104:	42970640 	addsmi	r0, r7, #64, 12	; 0x4000000
 108:	0013010c 	andseq	r0, r3, ip, lsl #2
 10c:	00050800 	andeq	r0, r5, r0, lsl #16
 110:	0b3a0803 	bleq	e82124 <__bss_end+0xe68c18>
 114:	13490b3b 	movtne	r0, #39739	; 0x9b3b
 118:	00000a02 	andeq	r0, r0, r2, lsl #20
 11c:	03000509 	movweq	r0, #1289	; 0x509
 120:	3b0b3a08 	blcc	2ce948 <__bss_end+0x2b543c>
 124:	0213490b 	andseq	r4, r3, #180224	; 0x2c000
 128:	0a000006 	beq	148 <_start-0x7eb8>
 12c:	08030034 	stmdaeq	r3, {r2, r4, r5}
 130:	0b3b0b3a 	bleq	ec2e20 <__bss_end+0xea9914>
 134:	06021349 	streq	r1, [r2], -r9, asr #6
 138:	340b0000 	strcc	r0, [fp], #-0
 13c:	3a0e0300 	bcc	380d44 <__bss_end+0x367838>
 140:	490b3b0b 	stmdbmi	fp, {r0, r1, r3, r8, r9, fp, ip, sp}
 144:	00060213 	andeq	r0, r6, r3, lsl r2
 148:	11010000 	mrsne	r0, (UNDEF: 1)
 14c:	11061000 	mrsne	r1, (UNDEF: 6)
 150:	03011201 	movweq	r1, #4609	; 0x1201
 154:	25081b08 	strcs	r1, [r8, #-2824]	; 0xfffff4f8
 158:	00051308 	andeq	r1, r5, r8, lsl #6
 15c:	11010000 	mrsne	r0, (UNDEF: 1)
 160:	11061000 	mrsne	r1, (UNDEF: 6)
 164:	03011201 	movweq	r1, #4609	; 0x1201
 168:	25081b08 	strcs	r1, [r8, #-2824]	; 0xfffff4f8
 16c:	00051308 	andeq	r1, r5, r8, lsl #6
 170:	11010000 	mrsne	r0, (UNDEF: 1)
 174:	11061000 	mrsne	r1, (UNDEF: 6)
 178:	03011201 	movweq	r1, #4609	; 0x1201
 17c:	25081b08 	strcs	r1, [r8, #-2824]	; 0xfffff4f8
 180:	00051308 	andeq	r1, r5, r8, lsl #6
 184:	11010000 	mrsne	r0, (UNDEF: 1)
 188:	11061000 	mrsne	r1, (UNDEF: 6)
 18c:	03011201 	movweq	r1, #4609	; 0x1201
 190:	25081b08 	strcs	r1, [r8, #-2824]	; 0xfffff4f8
 194:	00051308 	andeq	r1, r5, r8, lsl #6
 198:	11010000 	mrsne	r0, (UNDEF: 1)
 19c:	11061000 	mrsne	r1, (UNDEF: 6)
 1a0:	03011201 	movweq	r1, #4609	; 0x1201
 1a4:	25081b08 	strcs	r1, [r8, #-2824]	; 0xfffff4f8
 1a8:	00051308 	andeq	r1, r5, r8, lsl #6
	...

Disassembly of section .debug_loc:

00000000 <.debug_loc>:
   0:	00000000 	andeq	r0, r0, r0
   4:	00000008 	andeq	r0, r0, r8
   8:	007d0002 	rsbseq	r0, sp, r2
   c:	00000008 	andeq	r0, r0, r8
  10:	000000f4 	strdeq	r0, [r0], -r4
  14:	107d0002 	rsbsne	r0, sp, r2
	...
  24:	00000074 	andeq	r0, r0, r4, ror r0
  28:	74510001 	ldrbvc	r0, [r1], #-1
  2c:	b8000000 	stmdalt	r0, {}	; <UNPREDICTABLE>
  30:	04000000 	streq	r0, [r0], #-0
  34:	5101f300 	mrspl	pc, SP_irq	; <UNPREDICTABLE>
  38:	0000b89f 	muleq	r0, pc, r8	; <UNPREDICTABLE>
  3c:	0000bc00 	andeq	fp, r0, r0, lsl #24
  40:	51000100 	mrspl	r0, (UNDEF: 16)
  44:	000000bc 	strheq	r0, [r0], -ip
  48:	000000e4 	andeq	r0, r0, r4, ror #1
  4c:	01f30004 	mvnseq	r0, r4
  50:	00e49f51 	rsceq	r9, r4, r1, asr pc
  54:	00ec0000 	rsceq	r0, ip, r0
  58:	00010000 	andeq	r0, r1, r0
  5c:	0000ec51 	andeq	lr, r0, r1, asr ip
  60:	0000f400 	andeq	pc, r0, r0, lsl #8
  64:	f3000400 	vshl.u8	d0, d0, d0
  68:	009f5101 	addseq	r5, pc, r1, lsl #2
	...
  74:	24000000 	strcs	r0, [r0], #-0
  78:	01000000 	mrseq	r0, (UNDEF: 0)
  7c:	00245200 	eoreq	r5, r4, r0, lsl #4
  80:	00400000 	subeq	r0, r0, r0
  84:	00010000 	andeq	r0, r1, r0
  88:	00004054 	andeq	r4, r0, r4, asr r0
  8c:	00005400 	andeq	r5, r0, r0, lsl #8
  90:	74000300 	strvc	r0, [r0], #-768	; 0xfffffd00
  94:	00549f10 	subseq	r9, r4, r0, lsl pc
  98:	005c0000 	subseq	r0, ip, r0
  9c:	00010000 	andeq	r0, r1, r0
  a0:	00007454 	andeq	r7, r0, r4, asr r4
  a4:	00007c00 	andeq	r7, r0, r0, lsl #24
  a8:	5c000100 	stfpls	f0, [r0], {-0}
  ac:	0000007c 	andeq	r0, r0, ip, ror r0
  b0:	00000088 	andeq	r0, r0, r8, lsl #1
  b4:	047c0003 	ldrbteq	r0, [ip], #-3
  b8:	0000889f 	muleq	r0, pc, r8	; <UNPREDICTABLE>
  bc:	00009000 	andeq	r9, r0, r0
  c0:	72000500 	andvc	r0, r0, #0, 10
  c4:	9f1a3f00 	svcls	0x001a3f00
  c8:	000000b8 	strheq	r0, [r0], -r8
  cc:	000000bc 	strheq	r0, [r0], -ip
  d0:	bc520001 	mrrclt	0, 0, r0, r2, cr1
  d4:	c4000000 	strgt	r0, [r0], #-0
  d8:	03000000 	movweq	r0, #0
  dc:	9f7f7200 	svcls	0x007f7200
  e0:	000000e4 	andeq	r0, r0, r4, ror #1
  e4:	000000ec 	andeq	r0, r0, ip, ror #1
  e8:	ec520001 	mrrc	0, 0, r0, r2, cr1
  ec:	f4000000 	vst4.8	{d0-d3}, [r0], r0
  f0:	01000000 	mrseq	r0, (UNDEF: 0)
  f4:	00005c00 	andeq	r5, r0, r0, lsl #24
  f8:	00000000 	andeq	r0, r0, r0
  fc:	00040000 	andeq	r0, r4, r0
 100:	00bc0000 	adcseq	r0, ip, r0
 104:	00010000 	andeq	r0, r1, r0
 108:	0000bc50 	andeq	fp, r0, r0, asr ip
 10c:	0000e400 	andeq	lr, r0, r0, lsl #8
 110:	53000100 	movwpl	r0, #256	; 0x100
 114:	000000e4 	andeq	r0, r0, r4, ror #1
 118:	000000f4 	strdeq	r0, [r0], -r4
 11c:	00500001 	subseq	r0, r0, r1
 120:	00000000 	andeq	r0, r0, r0
 124:	04000000 	streq	r0, [r0], #-0
 128:	74000000 	strvc	r0, [r0], #-0
 12c:	01000000 	mrseq	r0, (UNDEF: 0)
 130:	00745100 	rsbseq	r5, r4, r0, lsl #2
 134:	00b80000 	adcseq	r0, r8, r0
 138:	00040000 	andeq	r0, r4, r0
 13c:	9f5101f3 	svcls	0x005101f3
 140:	000000b8 	strheq	r0, [r0], -r8
 144:	000000c8 	andeq	r0, r0, r8, asr #1
 148:	c8510001 	ldmdagt	r1, {r0}^
 14c:	cc000000 	stcgt	0, cr0, [r0], {-0}
 150:	03000000 	movweq	r0, #0
 154:	9f017100 	svcls	0x00017100
 158:	000000e4 	andeq	r0, r0, r4, ror #1
 15c:	000000ec 	andeq	r0, r0, ip, ror #1
 160:	ec510001 	mrrc	0, 0, r0, r1, cr1
 164:	f4000000 	vst4.8	{d0-d3}, [r0], r0
 168:	04000000 	streq	r0, [r0], #-0
 16c:	5101f300 	mrspl	pc, SP_irq	; <UNPREDICTABLE>
 170:	0000009f 	muleq	r0, pc, r0	; <UNPREDICTABLE>
 174:	00000000 	andeq	r0, r0, r0
 178:	00002c00 	andeq	r2, r0, r0, lsl #24
 17c:	00003400 	andeq	r3, r0, r0, lsl #8
 180:	73000300 	movwvc	r0, #768	; 0x300
 184:	00349f04 	eorseq	r9, r4, r4, lsl #30
 188:	003c0000 	eorseq	r0, ip, r0
 18c:	00030000 	andeq	r0, r3, r0
 190:	3c9f0873 	ldccc	8, cr0, [pc], {115}	; 0x73
 194:	54000000 	strpl	r0, [r0], #-0
 198:	03000000 	movweq	r0, #0
 19c:	9f0c7300 	svcls	0x000c7300
 1a0:	00000054 	andeq	r0, r0, r4, asr r0
 1a4:	00000070 	andeq	r0, r0, r0, ror r0
 1a8:	74530001 	ldrbvc	r0, [r3], #-1
 1ac:	90000000 	andls	r0, r0, r0
 1b0:	01000000 	mrseq	r0, (UNDEF: 0)
 1b4:	00905300 	addseq	r5, r0, r0, lsl #6
 1b8:	00b80000 	adcseq	r0, r8, r0
 1bc:	00010000 	andeq	r0, r1, r0
 1c0:	0000ec54 	andeq	lr, r0, r4, asr ip
 1c4:	0000f400 	andeq	pc, r0, r0, lsl #8
 1c8:	53000100 	movwpl	r0, #256	; 0x100
	...
 1d4:	0000002c 	andeq	r0, r0, ip, lsr #32
 1d8:	00000034 	andeq	r0, r0, r4, lsr r0
 1dc:	047c0003 	ldrbteq	r0, [ip], #-3
 1e0:	0000349f 	muleq	r0, pc, r4	; <UNPREDICTABLE>
 1e4:	00003c00 	andeq	r3, r0, r0, lsl #24
 1e8:	7c000300 	stcvc	3, cr0, [r0], {-0}
 1ec:	003c9f08 	eorseq	r9, ip, r8, lsl #30
 1f0:	00500000 	subseq	r0, r0, r0
 1f4:	00030000 	andeq	r0, r3, r0
 1f8:	509f0c7c 	addspl	r0, pc, ip, ror ip	; <UNPREDICTABLE>
 1fc:	54000000 	strpl	r0, [r0], #-0
 200:	03000000 	movweq	r0, #0
 204:	9f7c7c00 	svcls	0x007c7c00
 208:	00000054 	andeq	r0, r0, r4, asr r0
 20c:	00000064 	andeq	r0, r0, r4, rrx
 210:	745c0001 	ldrbvc	r0, [ip], #-1
 214:	90000000 	andls	r0, r0, r0
 218:	01000000 	mrseq	r0, (UNDEF: 0)
 21c:	00ec5100 	rsceq	r5, ip, r0, lsl #2
 220:	00f40000 	rscseq	r0, r4, r0
 224:	00010000 	andeq	r0, r1, r0
 228:	00000051 	andeq	r0, r0, r1, asr r0
	...
 234:	00000800 	andeq	r0, r0, r0, lsl #16
 238:	7d000200 	sfmvc	f0, 4, [r0, #-0]
 23c:	00000800 	andeq	r0, r0, r0, lsl #16
 240:	0000f800 	andeq	pc, r0, r0, lsl #16
 244:	7d000200 	sfmvc	f0, 4, [r0, #-0]
 248:	00000008 	andeq	r0, r0, r8
	...
 254:	0000d400 	andeq	sp, r0, r0, lsl #8
 258:	51000100 	mrspl	r0, (UNDEF: 16)
 25c:	000000d4 	ldrdeq	r0, [r0], -r4
 260:	000000f0 	strdeq	r0, [r0], -r0	; <UNPREDICTABLE>
 264:	01f30004 	mvnseq	r0, r4
 268:	00f09f51 	rscseq	r9, r0, r1, asr pc
 26c:	00f80000 	rscseq	r0, r8, r0
 270:	00010000 	andeq	r0, r1, r0
 274:	00000051 	andeq	r0, r0, r1, asr r0
	...
 280:	00001800 	andeq	r1, r0, r0, lsl #16
 284:	52000100 	andpl	r0, r0, #0, 2
 288:	00000018 	andeq	r0, r0, r8, lsl r0
 28c:	00000064 	andeq	r0, r0, r4, rrx
 290:	80520001 	subshi	r0, r2, r1
 294:	9c000000 	stcls	0, cr0, [r0], {-0}
 298:	01000000 	mrseq	r0, (UNDEF: 0)
 29c:	009c5500 	addseq	r5, ip, r0, lsl #10
 2a0:	00a80000 	adceq	r0, r8, r0
 2a4:	00010000 	andeq	r0, r1, r0
 2a8:	0000a852 	andeq	sl, r0, r2, asr r8
 2ac:	0000ac00 	andeq	sl, r0, r0, lsl #24
 2b0:	53000100 	movwpl	r0, #256	; 0x100
 2b4:	000000ac 	andeq	r0, r0, ip, lsr #1
 2b8:	000000b4 	strheq	r0, [r0], -r4
 2bc:	04730003 	ldrbteq	r0, [r3], #-3
 2c0:	0000b49f 	muleq	r0, pc, r4	; <UNPREDICTABLE>
 2c4:	0000bc00 	andeq	fp, r0, r0, lsl #24
 2c8:	53000100 	movwpl	r0, #256	; 0x100
 2cc:	000000cc 	andeq	r0, r0, ip, asr #1
 2d0:	000000d8 	ldrdeq	r0, [r0], -r8
 2d4:	7f720003 	svcvc	0x00720003
 2d8:	0000f09f 	muleq	r0, pc, r0	; <UNPREDICTABLE>
 2dc:	0000f800 	andeq	pc, r0, r0, lsl #16
 2e0:	52000100 	andpl	r0, r0, #0, 2
	...
 2ec:	00000004 	andeq	r0, r0, r4
 2f0:	00000024 	andeq	r0, r0, r4, lsr #32
 2f4:	24500001 	ldrbcs	r0, [r0], #-1
 2f8:	34000000 	strcc	r0, [r0], #-0
 2fc:	01000000 	mrseq	r0, (UNDEF: 0)
 300:	00345300 	eorseq	r5, r4, r0, lsl #6
 304:	003c0000 	eorseq	r0, ip, r0
 308:	00030000 	andeq	r0, r3, r0
 30c:	3c9f7f73 	ldccc	15, cr7, [pc], {115}	; 0x73
 310:	5c000000 	stcpl	0, cr0, [r0], {-0}
 314:	01000000 	mrseq	r0, (UNDEF: 0)
 318:	005c5300 	subseq	r5, ip, r0, lsl #6
 31c:	009c0000 	addseq	r0, ip, r0
 320:	00010000 	andeq	r0, r1, r0
 324:	0000cc5c 	andeq	ip, r0, ip, asr ip
 328:	0000e800 	andeq	lr, r0, r0, lsl #16
 32c:	5c000100 	stfpls	f0, [r0], {-0}
 330:	000000f0 	strdeq	r0, [r0], -r0	; <UNPREDICTABLE>
 334:	000000f8 	strdeq	r0, [r0], -r8
 338:	00500001 	subseq	r0, r0, r1
 33c:	00000000 	andeq	r0, r0, r0
 340:	58000000 	stmdapl	r0, {}	; <UNPREDICTABLE>
 344:	cc000000 	stcgt	0, cr0, [r0], {-0}
 348:	03000000 	movweq	r0, #0
 34c:	9f200800 	svcls	0x00200800
	...
 358:	00000054 	andeq	r0, r0, r4, asr r0
 35c:	000000cc 	andeq	r0, r0, ip, asr #1
 360:	00540001 	subseq	r0, r4, r1
 364:	00000000 	andeq	r0, r0, r0
 368:	4c000000 	stcmi	0, cr0, [r0], {-0}
 36c:	5c000000 	stcpl	0, cr0, [r0], {-0}
 370:	01000000 	mrseq	r0, (UNDEF: 0)
 374:	005c5300 	subseq	r5, ip, r0, lsl #6
 378:	00640000 	rsbeq	r0, r4, r0
 37c:	00010000 	andeq	r0, r1, r0
 380:	0000705c 	andeq	r7, r0, ip, asr r0
 384:	00007400 	andeq	r7, r0, r0, lsl #8
 388:	73000300 	movwvc	r0, #768	; 0x300
 38c:	00749f04 	rsbseq	r9, r4, r4, lsl #30
 390:	00780000 	rsbseq	r0, r8, r0
 394:	00030000 	andeq	r0, r3, r0
 398:	789f0873 	ldmvc	pc, {r0, r1, r4, r5, r6, fp}	; <UNPREDICTABLE>
 39c:	80000000 	andhi	r0, r0, r0
 3a0:	03000000 	movweq	r0, #0
 3a4:	9f0c7300 	svcls	0x000c7300
 3a8:	00000080 	andeq	r0, r0, r0, lsl #1
 3ac:	00000088 	andeq	r0, r0, r8, lsl #1
 3b0:	9c530001 	mrrcls	0, 0, r0, r3, cr1
 3b4:	a8000000 	stmdage	r0, {}	; <UNPREDICTABLE>
 3b8:	01000000 	mrseq	r0, (UNDEF: 0)
 3bc:	00a85c00 	adceq	r5, r8, r0, lsl #24
 3c0:	00cc0000 	sbceq	r0, ip, r0
 3c4:	00010000 	andeq	r0, r1, r0
 3c8:	00000055 	andeq	r0, r0, r5, asr r0
 3cc:	00000000 	andeq	r0, r0, r0
 3d0:	00000400 	andeq	r0, r0, r0, lsl #8
 3d4:	00002000 	andeq	r2, r0, r0
 3d8:	71000600 	tstvc	r0, r0, lsl #12
 3dc:	1aff0800 	bne	fffc23e4 <_estack+0xf7fb23e4>
 3e0:	0000209f 	muleq	r0, pc, r0	; <UNPREDICTABLE>
 3e4:	00004000 	andeq	r4, r0, r0
 3e8:	54000100 	strpl	r0, [r0], #-256	; 0xffffff00
 3ec:	00000040 	andeq	r0, r0, r0, asr #32
 3f0:	000000d4 	ldrdeq	r0, [r0], -r4
 3f4:	00710006 	rsbseq	r0, r1, r6
 3f8:	9f1aff08 	svcls	0x001aff08
 3fc:	000000d4 	ldrdeq	r0, [r0], -r4
 400:	000000f0 	strdeq	r0, [r0], -r0	; <UNPREDICTABLE>
 404:	01f30007 	mvnseq	r0, r7
 408:	1aff0851 	bne	fffc2554 <_estack+0xf7fb2554>
 40c:	0000f09f 	muleq	r0, pc, r0	; <UNPREDICTABLE>
 410:	0000f800 	andeq	pc, r0, r0, lsl #16
 414:	71000600 	tstvc	r0, r0, lsl #12
 418:	1aff0800 	bne	fffc2420 <_estack+0xf7fb2420>
 41c:	0000009f 	muleq	r0, pc, r0	; <UNPREDICTABLE>
 420:	00000000 	andeq	r0, r0, r0
	...

Disassembly of section .debug_aranges:

00000000 <.debug_aranges>:
   0:	0000001c 	andeq	r0, r0, ip, lsl r0
   4:	00000002 	andeq	r0, r0, r2
   8:	00040000 	andeq	r0, r4, r0
   c:	00000000 	andeq	r0, r0, r0
  10:	00014e68 	andeq	r4, r1, r8, ror #28
  14:	000000f4 	strdeq	r0, [r0], -r4
	...
  20:	0000001c 	andeq	r0, r0, ip, lsl r0
  24:	01360002 	teqeq	r6, r2
  28:	00040000 	andeq	r0, r4, r0
  2c:	00000000 	andeq	r0, r0, r0
  30:	00014f5c 	andeq	r4, r1, ip, asr pc
  34:	000000f8 	strdeq	r0, [r0], -r8
	...
  40:	0000001c 	andeq	r0, r0, ip, lsl r0
  44:	02520002 	subseq	r0, r2, #2
  48:	00040000 	andeq	r0, r4, r0
  4c:	00000000 	andeq	r0, r0, r0
  50:	00015054 	andeq	r5, r1, r4, asr r0
  54:	00000114 	andeq	r0, r0, r4, lsl r1
	...
  60:	0000001c 	andeq	r0, r0, ip, lsl r0
  64:	02e30002 	rsceq	r0, r3, #2
  68:	00040000 	andeq	r0, r4, r0
  6c:	00000000 	andeq	r0, r0, r0
  70:	00015168 	andeq	r5, r1, r8, ror #2
  74:	00000004 	andeq	r0, r0, r4
	...
  80:	0000001c 	andeq	r0, r0, ip, lsl r0
  84:	03740002 	cmneq	r4, #2
  88:	00040000 	andeq	r0, r4, r0
  8c:	00000000 	andeq	r0, r0, r0
  90:	0001516c 	andeq	r5, r1, ip, ror #2
  94:	0000041c 	andeq	r0, r0, ip, lsl r4
	...
  a0:	0000001c 	andeq	r0, r0, ip, lsl r0
  a4:	04060002 	streq	r0, [r6], #-2
  a8:	00040000 	andeq	r0, r4, r0
  ac:	00000000 	andeq	r0, r0, r0
  b0:	00015588 	andeq	r5, r1, r8, lsl #11
  b4:	0000049c 	muleq	r0, ip, r4
	...
  c0:	0000001c 	andeq	r0, r0, ip, lsl r0
  c4:	04980002 	ldreq	r0, [r8], #2
  c8:	00040000 	andeq	r0, r4, r0
  cc:	00000000 	andeq	r0, r0, r0
  d0:	00015a24 	andeq	r5, r1, r4, lsr #20
  d4:	000000a0 	andeq	r0, r0, r0, lsr #1
	...

Disassembly of section .debug_line:

00000000 <.debug_line>:
   0:	00000187 	andeq	r0, r0, r7, lsl #3
   4:	01030002 	tsteq	r3, r2
   8:	01020000 	mrseq	r0, (UNDEF: 2)
   c:	000d0efb 	strdeq	r0, [sp], -fp
  10:	01010101 	tsteq	r1, r1, lsl #2
  14:	01000000 	mrseq	r0, (UNDEF: 0)
  18:	2e010000 	cdpcs	0, 0, cr0, cr1, cr0, {0}
  1c:	2e2e2f2e 	cdpcs	15, 2, cr2, cr14, cr14, {1}
  20:	2f2e2e2f 	svccs	0x002e2e2f
  24:	2e2f2e2e 	cdpcs	14, 2, cr2, cr15, cr14, {1}
  28:	2e2e2f2e 	cdpcs	15, 2, cr2, cr14, cr14, {1}
  2c:	77656e2f 	strbvc	r6, [r5, -pc, lsr #28]!
  30:	2d62696c 	stclcs	9, cr6, [r2, #-432]!	; 0xfffffe50
  34:	30322e31 	eorscc	r2, r2, r1, lsr lr
  38:	6e2f302e 	cdpvs	0, 2, cr3, cr15, cr14, {1}
  3c:	696c7765 	stmdbvs	ip!, {r0, r2, r5, r6, r8, r9, sl, ip, sp, lr}^
  40:	696c2f62 	stmdbvs	ip!, {r1, r5, r6, r8, r9, sl, fp, sp}^
  44:	6d2f6362 	stcvs	3, cr6, [pc, #-392]!	; fffffec4 <_estack+0xf7fefec4>
  48:	69686361 	stmdbvs	r8!, {r0, r5, r6, r8, r9, sp, lr}^
  4c:	612f656e 	teqvs	pc, lr, ror #10
  50:	2e2f6d72 	mcrcs	13, 1, r6, cr15, cr2, {3}
  54:	2e2e2f2e 	cdpcs	15, 2, cr2, cr14, cr14, {1}
  58:	7274732f 	rsbsvc	r7, r4, #-1140850688	; 0xbc000000
  5c:	00676e69 	rsbeq	r6, r7, r9, ror #28
  60:	6d2f3a43 	vstmdbvs	pc!, {s6-s72}
  64:	2f737973 	svccs	0x00737973
  68:	2f302e31 	svccs	0x00302e31
  6c:	656d6f68 	strbvs	r6, [sp, #-3944]!	; 0xfffff098
  70:	6761792f 	strbvs	r7, [r1, -pc, lsr #18]!
  74:	6f747261 	svcvs	0x00747261
  78:	77656e2f 	strbvc	r6, [r5, -pc, lsr #28]!
  7c:	2d62696c 	stclcs	9, cr6, [r2, #-432]!	; 0xfffffe50
  80:	30322e31 	eorscc	r2, r2, r1, lsr lr
  84:	6e2f302e 	cdpvs	0, 2, cr3, cr15, cr14, {1}
  88:	696c7765 	stmdbvs	ip!, {r0, r2, r5, r6, r8, r9, sl, ip, sp, lr}^
  8c:	696c2f62 	stmdbvs	ip!, {r1, r5, r6, r8, r9, sl, fp, sp}^
  90:	692f6362 	stmdbvs	pc!, {r1, r5, r6, r8, r9, sp, lr}	; <UNPREDICTABLE>
  94:	756c636e 	strbvc	r6, [ip, #-878]!	; 0xfffffc92
  98:	63006564 	movwvs	r6, #1380	; 0x564
  9c:	736d5c3a 	cmnvc	sp, #14848	; 0x3a00
  a0:	315c7379 	cmpcc	ip, r9, ror r3
  a4:	685c302e 	ldmdavs	ip, {r1, r2, r3, r5, ip, sp}^
  a8:	5c656d6f 	stclpl	13, cr6, [r5], #-444	; 0xfffffe44
  ac:	61676179 	smcvs	30233	; 0x7619
  b0:	5c6f7472 	cfstrdpl	mvd7, [pc], #-456	; fffffef0 <_estack+0xf7fefef0>
  b4:	74736e69 	ldrbtvc	r6, [r3], #-3689	; 0xfffff197
  b8:	5c6c6c61 	stclpl	12, cr6, [ip], #-388	; 0xfffffe7c
  bc:	5c6e6962 	stclpl	9, cr6, [lr], #-392	; 0xfffffe78
  c0:	6c2f2e2e 	stcvs	14, cr2, [pc], #-184	; 10 <_start-0x7ff0>
  c4:	672f6269 	strvs	r6, [pc, -r9, ror #4]!
  c8:	612f6363 	teqvs	pc, r3, ror #6
  cc:	6e2d6d72 	mcrvs	13, 1, r6, cr13, cr2, {3}
  d0:	2d656e6f 	stclcs	14, cr6, [r5, #-444]!	; 0xfffffe44
  d4:	69626165 	stmdbvs	r2!, {r0, r2, r5, r6, r8, sp, lr}^
  d8:	372e342f 	strcc	r3, [lr, -pc, lsr #8]!
  dc:	692f322e 	stmdbvs	pc!, {r1, r2, r3, r5, r9, ip, sp}	; <UNPREDICTABLE>
  e0:	756c636e 	strbvc	r6, [ip, #-878]!	; 0xfffffc92
  e4:	00006564 	andeq	r6, r0, r4, ror #10
  e8:	636d656d 	cmnvs	sp, #457179136	; 0x1b400000
  ec:	632e7970 	teqvs	lr, #112, 18	; 0x1c0000
  f0:	00000100 	andeq	r0, r0, r0, lsl #2
  f4:	69727473 	ldmdbvs	r2!, {r0, r1, r4, r5, r6, sl, ip, sp, lr}^
  f8:	682e676e 	stmdavs	lr!, {r1, r2, r3, r5, r6, r8, r9, sl, sp, lr}
  fc:	00000200 	andeq	r0, r0, r0, lsl #4
 100:	64647473 	strbtvs	r7, [r4], #-1139	; 0xfffffb8d
 104:	682e6665 	stmdavs	lr!, {r0, r2, r5, r6, r9, sl, sp, lr}
 108:	00000300 	andeq	r0, r0, r0, lsl #6
 10c:	02050000 	andeq	r0, r5, #0
 110:	00014e68 	andeq	r4, r1, r8, ror #28
 114:	03013803 	movweq	r3, #6147	; 0x1803
 118:	6b030115 	blvs	c0574 <__bss_end+0xa7068>
 11c:	2e15032e 	cdpcs	3, 1, cr0, cr5, cr14, {1}
 120:	01040200 	mrseq	r0, R12_usr
 124:	06662e06 	strbteq	r2, [r6], -r6, lsl #28
 128:	4c4b4b6e 	mcrrmi	11, 6, r4, fp, cr14
 12c:	0433292d 	ldrteq	r2, [r3], #-2349	; 0xfffff6d3
 130:	2e400302 	cdpcs	3, 4, cr0, cr0, cr2, {0}
 134:	3b030104 	blcc	c054c <__bss_end+0xa7040>
 138:	0002044a 	andeq	r0, r2, sl, asr #8
 13c:	03010402 	movweq	r0, #5122	; 0x1402
 140:	01042e45 	tsteq	r4, r5, asr #28
 144:	01040200 	mrseq	r0, R12_usr
 148:	8200c503 	andhi	ip, r0, #12582912	; 0xc00000
 14c:	bb030204 	bllt	c0964 <__bss_end+0xa7458>
 150:	0104827f 	tsteq	r4, pc, ror r2
 154:	9e00c003 	cdpls	0, 0, cr12, cr0, cr3, {0}
 158:	2c302c35 	ldccs	12, cr2, [r0], #-212	; 0xffffff2c
 15c:	bb030204 	bllt	c0974 <__bss_end+0xa7468>
 160:	01042e7f 	tsteq	r4, pc, ror lr
 164:	6600c703 	strvs	ip, [r0], -r3, lsl #14
 168:	00666703 	rsbeq	r6, r6, r3, lsl #14
 16c:	03010402 	movweq	r0, #5122	; 0x1402
 170:	02042e22 	andeq	r2, r4, #544	; 0x220
 174:	4a7fb003 	bmi	1fec188 <__bss_end+0x1fd2c7c>
 178:	d1030104 	tstle	r3, r4, lsl #2
 17c:	4f494a00 	svcmi	0x00494a00
 180:	034a5903 	movteq	r5, #43267	; 0xa903
 184:	04024a17 	streq	r4, [r2], #-2583	; 0xfffff5e9
 188:	75010100 	strvc	r0, [r1, #-256]	; 0xffffff00
 18c:	02000001 	andeq	r0, r0, #1
 190:	0000ee00 	andeq	lr, r0, r0, lsl #28
 194:	fb010200 	blx	4099e <__bss_end+0x27492>
 198:	01000d0e 	tsteq	r0, lr, lsl #26
 19c:	00010101 	andeq	r0, r1, r1, lsl #2
 1a0:	00010000 	andeq	r0, r1, r0
 1a4:	2e2e0100 	sufcse	f0, f6, f0
 1a8:	2f2e2e2f 	svccs	0x002e2e2f
 1ac:	2e2f2e2e 	cdpcs	14, 2, cr2, cr15, cr14, {1}
 1b0:	2e2e2f2e 	cdpcs	15, 2, cr2, cr14, cr14, {1}
 1b4:	77656e2f 	strbvc	r6, [r5, -pc, lsr #28]!
 1b8:	2d62696c 	stclcs	9, cr6, [r2, #-432]!	; 0xfffffe50
 1bc:	30322e31 	eorscc	r2, r2, r1, lsr lr
 1c0:	6e2f302e 	cdpvs	0, 2, cr3, cr15, cr14, {1}
 1c4:	696c7765 	stmdbvs	ip!, {r0, r2, r5, r6, r8, r9, sl, ip, sp, lr}^
 1c8:	696c2f62 	stmdbvs	ip!, {r1, r5, r6, r8, r9, sl, fp, sp}^
 1cc:	732f6362 	teqvc	pc, #-2013265919	; 0x88000001
 1d0:	6e697274 	mcrvs	2, 3, r7, cr9, cr4, {3}
 1d4:	3a430067 	bcc	10c0378 <__bss_end+0x10a6e6c>
 1d8:	79736d2f 	ldmdbvc	r3!, {r0, r1, r2, r3, r5, r8, sl, fp, sp, lr}^
 1dc:	2e312f73 	mrccs	15, 1, r2, cr1, cr3, {3}
 1e0:	6f682f30 	svcvs	0x00682f30
 1e4:	792f656d 	stmdbvc	pc!, {r0, r2, r3, r5, r6, r8, sl, sp, lr}	; <UNPREDICTABLE>
 1e8:	72616761 	rsbvc	r6, r1, #25427968	; 0x1840000
 1ec:	6e2f6f74 	mcrvs	15, 1, r6, cr15, cr4, {3}
 1f0:	696c7765 	stmdbvs	ip!, {r0, r2, r5, r6, r8, r9, sl, ip, sp, lr}^
 1f4:	2e312d62 	cdpcs	13, 3, cr2, cr1, cr2, {3}
 1f8:	302e3032 	eorcc	r3, lr, r2, lsr r0
 1fc:	77656e2f 	strbvc	r6, [r5, -pc, lsr #28]!
 200:	2f62696c 	svccs	0x0062696c
 204:	6362696c 	cmnvs	r2, #108, 18	; 0x1b0000
 208:	636e692f 	cmnvs	lr, #770048	; 0xbc000
 20c:	6564756c 	strbvs	r7, [r4, #-1388]!	; 0xfffffa94
 210:	5c3a6300 	ldcpl	3, cr6, [sl], #-0
 214:	7379736d 	cmnvc	r9, #-1275068415	; 0xb4000001
 218:	302e315c 	eorcc	r3, lr, ip, asr r1
 21c:	6d6f685c 	stclvs	8, cr6, [pc, #-368]!	; b4 <_start-0x7f4c>
 220:	61795c65 	cmnvs	r9, r5, ror #24
 224:	74726167 	ldrbtvc	r6, [r2], #-359	; 0xfffffe99
 228:	6e695c6f 	cdpvs	12, 6, cr5, cr9, cr15, {3}
 22c:	6c617473 	cfstrdvs	mvd7, [r1], #-460	; 0xfffffe34
 230:	69625c6c 	stmdbvs	r2!, {r2, r3, r5, r6, sl, fp, ip, lr}^
 234:	2e2e5c6e 	cdpcs	12, 2, cr5, cr14, cr14, {3}
 238:	62696c2f 	rsbvs	r6, r9, #12032	; 0x2f00
 23c:	6363672f 	cmnvs	r3, #12320768	; 0xbc0000
 240:	6d72612f 	ldfvse	f6, [r2, #-188]!	; 0xffffff44
 244:	6e6f6e2d 	cdpvs	14, 6, cr6, cr15, cr13, {1}
 248:	61652d65 	cmnvs	r5, r5, ror #26
 24c:	342f6962 	strtcc	r6, [pc], #-2402	; 254 <_start-0x7dac>
 250:	322e372e 	eorcc	r3, lr, #12058624	; 0xb80000
 254:	636e692f 	cmnvs	lr, #770048	; 0xbc000
 258:	6564756c 	strbvs	r7, [r4, #-1388]!	; 0xfffffa94
 25c:	656d0000 	strbvs	r0, [sp, #-0]!
 260:	7465736d 	strbtvc	r7, [r5], #-877	; 0xfffffc93
 264:	0100632e 	tsteq	r0, lr, lsr #6
 268:	74730000 	ldrbtvc	r0, [r3], #-0
 26c:	676e6972 			; <UNDEFINED> instruction: 0x676e6972
 270:	0200682e 	andeq	r6, r0, #3014656	; 0x2e0000
 274:	74730000 	ldrbtvc	r0, [r3], #-0
 278:	66656464 	strbtvs	r6, [r5], -r4, ror #8
 27c:	0300682e 	movweq	r6, #2094	; 0x82e
 280:	00000000 	andeq	r0, r0, r0
 284:	4f5c0205 	svcmi	0x005c0205
 288:	2e030001 	cdpcs	0, 0, cr0, cr3, cr1, {0}
 28c:	010a0301 	tsteq	sl, r1, lsl #6
 290:	032e7603 	teqeq	lr, #3145728	; 0x300000
 294:	f34c2e0a 	vcge.f32	d18, d12, d10
 298:	362b312b 	strtcc	r3, [fp], -fp, lsr #2
 29c:	034a7503 	movteq	r7, #42243	; 0xa503
 2a0:	7a032e18 	bvc	cbb08 <__bss_end+0xb25fc>
 2a4:	6c332f2e 	ldcvs	15, cr2, [r3], #-184	; 0xffffff48
 2a8:	302e7a03 	eorcc	r7, lr, r3, lsl #20
 2ac:	042f2f2f 	strteq	r2, [pc], #-3887	; 2b4 <_start-0x7d4c>
 2b0:	2e480302 	cdpcs	3, 4, cr0, cr8, cr2, {0}
 2b4:	33030104 	movwcc	r0, #12548	; 0x3104
 2b8:	0002042e 	andeq	r0, r2, lr, lsr #8
 2bc:	03010402 	movweq	r0, #5122	; 0x1402
 2c0:	01042e4d 	tsteq	r4, sp, asr #28
 2c4:	01040200 	mrseq	r0, R12_usr
 2c8:	03823c03 	orreq	r3, r2, #768	; 0x300
 2cc:	0c036677 	stceq	6, cr6, [r3], {119}	; 0x77
 2d0:	2c302b4a 	ldccs	11, cr2, [r0], #-296	; 0xfffffed8
 2d4:	44030204 	strmi	r0, [r3], #-516	; 0xfffffdfc
 2d8:	0301042e 	movweq	r0, #5166	; 0x142e
 2dc:	0200823e 	andeq	r8, r0, #-536870909	; 0xe0000003
 2e0:	09030104 	stmdbeq	r3, {r2, r8}
 2e4:	0002042e 	andeq	r0, r2, lr, lsr #8
 2e8:	03010402 	movweq	r0, #5122	; 0x1402
 2ec:	044a7fb9 	strbeq	r7, [sl], #-4025	; 0xfffff047
 2f0:	04020001 	streq	r0, [r2], #-1
 2f4:	00c70301 	sbceq	r0, r7, r1, lsl #6
 2f8:	4e2d2f2e 	cdpmi	15, 2, cr2, cr13, cr14, {1}
 2fc:	024a5303 	subeq	r5, sl, #201326592	; 0xc000000
 300:	01010004 	tsteq	r1, r4
 304:	00000086 	andeq	r0, r0, r6, lsl #1
 308:	00470002 	subeq	r0, r7, r2
 30c:	01020000 	mrseq	r0, (UNDEF: 2)
 310:	000d0efb 	strdeq	r0, [sp], -fp
 314:	01010101 	tsteq	r1, r1, lsl #2
 318:	01000000 	mrseq	r0, (UNDEF: 0)
 31c:	2e010000 	cdpcs	0, 0, cr0, cr1, cr0, {0}
 320:	2e2e2f2e 	cdpcs	15, 2, cr2, cr14, cr14, {1}
 324:	2f2e2e2f 	svccs	0x002e2e2f
 328:	2d636367 	stclcs	3, cr6, [r3, #-412]!	; 0xfffffe64
 32c:	2e372e34 	mrccs	14, 1, r2, cr7, cr4, {1}
 330:	696c2f32 	stmdbvs	ip!, {r1, r4, r5, r8, r9, sl, fp, sp}^
 334:	63636762 	cmnvs	r3, #25690112	; 0x1880000
 338:	6e6f632f 	cdpvs	3, 6, cr6, cr15, cr15, {1}
 33c:	2f676966 	svccs	0x00676966
 340:	006d7261 	rsbeq	r7, sp, r1, ror #4
 344:	62696c00 	rsbvs	r6, r9, #0, 24
 348:	6e756631 	mrcvs	6, 3, r6, cr5, cr1, {1}
 34c:	532e7363 	teqpl	lr, #-1946157055	; 0x8c000001
 350:	00000100 	andeq	r0, r0, r0, lsl #2
 354:	02050000 	andeq	r0, r5, #0
 358:	00015054 	andeq	r5, r1, r4, asr r0
 35c:	0107cc03 	tsteq	r7, r3, lsl #24
 360:	2f2f2f30 	svccs	0x002f2f30
 364:	fe032f2f 	cdp2	15, 0, cr2, cr3, cr15, {1}
 368:	86032e7c 			; <UNDEFINED> instruction: 0x86032e7c
 36c:	013e0203 	teqeq	lr, r3, lsl #4
 370:	2f2f312f 	svccs	0x002f312f
 374:	2e7db703 	cdpcs	7, 7, cr11, cr13, cr3, {0}
 378:	0802cd03 	stmdaeq	r2, {r0, r1, r8, sl, fp, lr, pc}
 37c:	03322f90 	teqeq	r2, #144, 30	; 0x240
 380:	2f2f6616 	svccs	0x002f6616
 384:	2f2f2f2f 	svccs	0x002f2f2f
 388:	0002022f 	andeq	r0, r2, pc, lsr #4
 38c:	005d0101 	subseq	r0, sp, r1, lsl #2
 390:	00020000 	andeq	r0, r2, r0
 394:	00000047 	andeq	r0, r0, r7, asr #32
 398:	0efb0102 	cdpeq	1, 15, cr0, cr11, cr2, {0}
 39c:	0101000d 	tsteq	r1, sp
 3a0:	00000101 	andeq	r0, r0, r1, lsl #2
 3a4:	00000100 	andeq	r0, r0, r0, lsl #2
 3a8:	2f2e2e01 	svccs	0x002e2e01
 3ac:	2e2f2e2e 	cdpcs	14, 2, cr2, cr15, cr14, {1}
 3b0:	63672f2e 	cmnvs	r7, #46, 30	; 0xb8
 3b4:	2e342d63 	cdpcs	13, 3, cr2, cr4, cr3, {3}
 3b8:	2f322e37 	svccs	0x00322e37
 3bc:	6762696c 	strbvs	r6, [r2, -ip, ror #18]!
 3c0:	632f6363 	teqvs	pc, #-1946157055	; 0x8c000001
 3c4:	69666e6f 	stmdbvs	r6!, {r0, r1, r2, r3, r5, r6, r9, sl, fp, sp, lr}^
 3c8:	72612f67 	rsbvc	r2, r1, #412	; 0x19c
 3cc:	6c00006d 	stcvs	0, cr0, [r0], {109}	; 0x6d
 3d0:	66316269 	ldrtvs	r6, [r1], -r9, ror #4
 3d4:	73636e75 	cmnvc	r3, #1872	; 0x750
 3d8:	0100532e 	tsteq	r0, lr, lsr #6
 3dc:	00000000 	andeq	r0, r0, r0
 3e0:	51680205 	cmnpl	r8, r5, lsl #4
 3e4:	93030001 	movwls	r0, #12289	; 0x3001
 3e8:	0202010a 	andeq	r0, r2, #-2147483646	; 0x80000002
 3ec:	64010100 	strvs	r0, [r1], #-256	; 0xffffff00
 3f0:	02000001 	andeq	r0, r0, #1
 3f4:	00004800 	andeq	r4, r0, r0, lsl #16
 3f8:	fb010200 	blx	40c02 <__bss_end+0x276f6>
 3fc:	01000d0e 	tsteq	r0, lr, lsl #26
 400:	00010101 	andeq	r0, r1, r1, lsl #2
 404:	00010000 	andeq	r0, r1, r0
 408:	2e2e0100 	sufcse	f0, f6, f0
 40c:	2f2e2e2f 	svccs	0x002e2e2f
 410:	672f2e2e 	strvs	r2, [pc, -lr, lsr #28]!
 414:	342d6363 	strtcc	r6, [sp], #-867	; 0xfffffc9d
 418:	322e372e 	eorcc	r3, lr, #12058624	; 0xb80000
 41c:	62696c2f 	rsbvs	r6, r9, #12032	; 0x2f00
 420:	2f636367 	svccs	0x00636367
 424:	666e6f63 	strbtvs	r6, [lr], -r3, ror #30
 428:	612f6769 	teqvs	pc, r9, ror #14
 42c:	00006d72 	andeq	r6, r0, r2, ror sp
 430:	65656569 	strbvs	r6, [r5, #-1385]!	; 0xfffffa97
 434:	2d343537 	cfldr32cs	mvfx3, [r4, #-220]!	; 0xffffff24
 438:	532e6664 	teqpl	lr, #100, 12	; 0x6400000
 43c:	00000100 	andeq	r0, r0, r0, lsl #2
 440:	02050000 	andeq	r0, r5, #0
 444:	0001516c 	andeq	r5, r1, ip, ror #2
 448:	0100c703 	tsteq	r0, r3, lsl #14
 44c:	3136332f 	teqcc	r6, pc, lsr #6
 450:	30302f2f 	eorscc	r2, r0, pc, lsr #30
 454:	2f2f2f2f 	svccs	0x002f2f2f
 458:	2f302f32 	svccs	0x00302f32
 45c:	2f2f2f2f 	svccs	0x002f2f2f
 460:	332f2f2f 	teqcc	pc, #47, 30	; 0xbc
 464:	2f2f4d30 	svccs	0x002f4d30
 468:	2f332f2f 	svccs	0x00332f2f
 46c:	2f2f2f31 	svccs	0x002f2f31
 470:	2f332f33 	svccs	0x00332f33
 474:	2f2f3132 	svccs	0x002f3132
 478:	2f2f2f2f 	svccs	0x002f2f2f
 47c:	2f2f2f2f 	svccs	0x002f2f2f
 480:	2f2f302f 	svccs	0x002f302f
 484:	2f352f32 	svccs	0x00352f32
 488:	2f2f332f 	svccs	0x002f332f
 48c:	2f2f312f 	svccs	0x002f312f
 490:	2f2f312f 	svccs	0x002f312f
 494:	2f2f3035 	svccs	0x002f3035
 498:	2f4e2f2f 	svccs	0x004e2f2f
 49c:	2f2f2f2f 	svccs	0x002f2f2f
 4a0:	2f2f2f35 	svccs	0x002f2f35
 4a4:	2f2f2f2f 	svccs	0x002f2f2f
 4a8:	2f2f2f2f 	svccs	0x002f2f2f
 4ac:	2f2f2f2f 	svccs	0x002f2f2f
 4b0:	032f2f2f 	teqeq	pc, #47, 30	; 0xbc
 4b4:	2f2f2e10 	svccs	0x002f2e10
 4b8:	2f2f322f 	svccs	0x002f322f
 4bc:	30322f2f 	eorscc	r2, r2, pc, lsr #30
 4c0:	322f352f 	eorcc	r3, pc, #197132288	; 0xbc00000
 4c4:	4e2f2f30 	mcrmi	15, 1, r2, cr15, cr0, {1}
 4c8:	2f2f2f2f 	svccs	0x002f2f2f
 4cc:	2f2f2f31 	svccs	0x002f2f31
 4d0:	2f4e2f2f 	svccs	0x004e2f2f
 4d4:	2f2f2f2f 	svccs	0x002f2f2f
 4d8:	4f2f2f4e 	svcmi	0x002f2f4e
 4dc:	2f2f302f 	svccs	0x002f302f
 4e0:	2f30322f 	svccs	0x0030322f
 4e4:	312f3030 	teqcc	pc, r0, lsr r0	; <UNPREDICTABLE>
 4e8:	4c2f2f30 	stcmi	15, cr2, [pc], #-192	; 430 <_start-0x7bd0>
 4ec:	4d2f2f32 	stcmi	15, cr2, [pc, #-200]!	; 42c <_start-0x7bd4>
 4f0:	302f2f2f 	eorcc	r2, pc, pc, lsr #30
 4f4:	2f304b2f 	svccs	0x00304b2f
 4f8:	2f2f324b 	svccs	0x002f324b
 4fc:	4a09032f 	bmi	2411c0 <__bss_end+0x227cb4>
 500:	302f2f30 	eorcc	r2, pc, r0, lsr pc	; <UNPREDICTABLE>
 504:	2f302f2f 	svccs	0x00302f2f
 508:	0a032f2f 	beq	cc1cc <__bss_end+0xb2cc0>
 50c:	2f2f304a 	svccs	0x002f304a
 510:	322f2f2f 	eorcc	r2, pc, #47, 30	; 0xbc
 514:	2f30362f 	svccs	0x0030362f
 518:	2f2f2f2f 	svccs	0x002f2f2f
 51c:	362f3230 			; <UNDEFINED> instruction: 0x362f3230
 520:	302f2f2f 	eorcc	r2, pc, pc, lsr #30
 524:	302f2f2f 	eorcc	r2, pc, pc, lsr #30
 528:	2f312f30 	svccs	0x00312f30
 52c:	362f2f2f 	strtcc	r2, [pc], -pc, lsr #30
 530:	2e0a0335 	mcrcs	3, 0, r0, cr10, cr5, {1}
 534:	35332f31 	ldrcc	r2, [r3, #-3889]!	; 0xfffff0cf
 538:	312e0a03 	teqcc	lr, r3, lsl #20
 53c:	312f332f 	teqcc	pc, pc, lsr #6
 540:	2e09032f 	cdpcs	3, 0, cr0, cr9, cr15, {1}
 544:	302f312f 	eorcc	r3, pc, pc, lsr #2
 548:	302f302f 	eorcc	r3, pc, pc, lsr #32
 54c:	2f2f2f2f 	svccs	0x002f2f2f
 550:	02022f2f 	andeq	r2, r2, #47, 30	; 0xbc
 554:	7c010100 	stfvcs	f0, [r1], {-0}
 558:	02000001 	andeq	r0, r0, #1
 55c:	00004800 	andeq	r4, r0, r0, lsl #16
 560:	fb010200 	blx	40d6a <__bss_end+0x2785e>
 564:	01000d0e 	tsteq	r0, lr, lsl #26
 568:	00010101 	andeq	r0, r1, r1, lsl #2
 56c:	00010000 	andeq	r0, r1, r0
 570:	2e2e0100 	sufcse	f0, f6, f0
 574:	2f2e2e2f 	svccs	0x002e2e2f
 578:	672f2e2e 	strvs	r2, [pc, -lr, lsr #28]!
 57c:	342d6363 	strtcc	r6, [sp], #-867	; 0xfffffc9d
 580:	322e372e 	eorcc	r3, lr, #12058624	; 0xb80000
 584:	62696c2f 	rsbvs	r6, r9, #12032	; 0x2f00
 588:	2f636367 	svccs	0x00636367
 58c:	666e6f63 	strbtvs	r6, [lr], -r3, ror #30
 590:	612f6769 	teqvs	pc, r9, ror #14
 594:	00006d72 	andeq	r6, r0, r2, ror sp
 598:	65656569 	strbvs	r6, [r5, #-1385]!	; 0xfffffa97
 59c:	2d343537 	cfldr32cs	mvfx3, [r4, #-220]!	; 0xffffff24
 5a0:	532e6664 	teqpl	lr, #100, 12	; 0x6400000
 5a4:	00000100 	andeq	r0, r0, r0, lsl #2
 5a8:	02050000 	andeq	r0, r5, #0
 5ac:	00015588 	andeq	r5, r1, r8, lsl #11
 5b0:	0104dc03 	tsteq	r4, r3, lsl #24
 5b4:	302f2f31 	eorcc	r2, pc, r1, lsr pc	; <UNPREDICTABLE>
 5b8:	312f2f2f 	teqcc	pc, pc, lsr #30
 5bc:	2f2f3231 	svccs	0x002f3231
 5c0:	2f2f2f30 	svccs	0x002f2f30
 5c4:	2e00c103 	mvfcss	f4, f3
 5c8:	2f2f2f2f 	svccs	0x002f2f2f
 5cc:	30342f2f 	eorscc	r2, r4, pc, lsr #30
 5d0:	2f2f2f31 	svccs	0x002f2f31
 5d4:	312f2f2f 	teqcc	pc, pc, lsr #30
 5d8:	2f2f2f2f 	svccs	0x002f2f2f
 5dc:	312f3031 	teqcc	pc, r1, lsr r0	; <UNPREDICTABLE>
 5e0:	2f2f2f30 	svccs	0x002f2f30
 5e4:	2f2f2f4e 	svccs	0x002f2f4e
 5e8:	2f2f302f 	svccs	0x002f302f
 5ec:	322f2f4d 	eorcc	r2, pc, #308	; 0x134
 5f0:	2f2f3031 	svccs	0x002f3031
 5f4:	2f2f2f4d 	svccs	0x002f2f4d
 5f8:	2f2f312f 	svccs	0x002f312f
 5fc:	2f2f2f2f 	svccs	0x002f2f2f
 600:	302f2f2f 	eorcc	r2, pc, pc, lsr #30
 604:	2f2f4e2f 	svccs	0x002f4e2f
 608:	2f2f2f2f 	svccs	0x002f2f2f
 60c:	2f302f2f 	svccs	0x00302f2f
 610:	2f2f2f4e 	svccs	0x002f2f4e
 614:	2f2f2f2f 	svccs	0x002f2f2f
 618:	4f2f302f 	svcmi	0x002f302f
 61c:	2f2f2f2f 	svccs	0x002f2f2f
 620:	2f2f302f 	svccs	0x002f302f
 624:	2f2f302f 	svccs	0x002f302f
 628:	2f302f2f 	svccs	0x00302f2f
 62c:	2f322f2f 	svccs	0x00322f2f
 630:	30312f30 	eorscc	r2, r1, r0, lsr pc
 634:	2f2f322f 	svccs	0x002f322f
 638:	2f304d2f 	svccs	0x00304d2f
 63c:	2f2f2f2f 	svccs	0x002f2f2f
 640:	2f2f2f2f 	svccs	0x002f2f2f
 644:	2f2f302f 	svccs	0x002f302f
 648:	2f2f3232 	svccs	0x002f3232
 64c:	2f4e2f2f 	svccs	0x004e2f2f
 650:	2f31522f 	svccs	0x0031522f
 654:	2f2f302f 	svccs	0x002f302f
 658:	3231312f 	eorscc	r3, r1, #-1073741813	; 0xc000000b
 65c:	2f2f2f2f 	svccs	0x002f2f2f
 660:	2f2f2f2f 	svccs	0x002f2f2f
 664:	32312f2f 	eorscc	r2, r1, #47, 30	; 0xbc
 668:	2f2f2f30 	svccs	0x002f2f30
 66c:	2f312f2f 	svccs	0x00312f2f
 670:	2f2f2f2f 	svccs	0x002f2f2f
 674:	2f302f31 	svccs	0x00302f31
 678:	2f2f2f2f 	svccs	0x002f2f2f
 67c:	2f2f302f 	svccs	0x002f302f
 680:	2f2f2f2f 	svccs	0x002f2f2f
 684:	2f2f2f30 	svccs	0x002f2f30
 688:	302f2f2f 	eorcc	r2, pc, pc, lsr #30
 68c:	2f302f2f 	svccs	0x00302f2f
 690:	2f2f2f2f 	svccs	0x002f2f2f
 694:	2f2f2f2f 	svccs	0x002f2f2f
 698:	2f2f2f32 	svccs	0x002f2f32
 69c:	30312f2f 	eorscc	r2, r1, pc, lsr #30
 6a0:	2f30312f 	svccs	0x0030312f
 6a4:	2f2f3031 	svccs	0x002f3031
 6a8:	2f4e2f2f 	svccs	0x004e2f2f
 6ac:	2f2f302f 	svccs	0x002f302f
 6b0:	2f2f2f4c 	svccs	0x002f2f4c
 6b4:	2f322f33 	svccs	0x00322f33
 6b8:	2f2f2f30 	svccs	0x002f2f30
 6bc:	2f2f2f2f 	svccs	0x002f2f2f
 6c0:	2f2f2f2f 	svccs	0x002f2f2f
 6c4:	2f2f2f2f 	svccs	0x002f2f2f
 6c8:	30302f2f 	eorscc	r2, r0, pc, lsr #30
 6cc:	2f2f302f 	svccs	0x002f302f
 6d0:	02022f2f 	andeq	r2, r2, #47, 30	; 0xbc
 6d4:	85010100 	strhi	r0, [r1, #-256]	; 0xffffff00
 6d8:	02000000 	andeq	r0, r0, #0
 6dc:	00004800 	andeq	r4, r0, r0, lsl #16
 6e0:	fb010200 	blx	40eea <__bss_end+0x279de>
 6e4:	01000d0e 	tsteq	r0, lr, lsl #26
 6e8:	00010101 	andeq	r0, r1, r1, lsl #2
 6ec:	00010000 	andeq	r0, r1, r0
 6f0:	2e2e0100 	sufcse	f0, f6, f0
 6f4:	2f2e2e2f 	svccs	0x002e2e2f
 6f8:	672f2e2e 	strvs	r2, [pc, -lr, lsr #28]!
 6fc:	342d6363 	strtcc	r6, [sp], #-867	; 0xfffffc9d
 700:	322e372e 	eorcc	r3, lr, #12058624	; 0xb80000
 704:	62696c2f 	rsbvs	r6, r9, #12032	; 0x2f00
 708:	2f636367 	svccs	0x00636367
 70c:	666e6f63 	strbtvs	r6, [lr], -r3, ror #30
 710:	612f6769 	teqvs	pc, r9, ror #14
 714:	00006d72 	andeq	r6, r0, r2, ror sp
 718:	65656569 	strbvs	r6, [r5, #-1385]!	; 0xfffffa97
 71c:	2d343537 	cfldr32cs	mvfx3, [r4, #-220]!	; 0xffffff24
 720:	532e6664 	teqpl	lr, #100, 12	; 0x6400000
 724:	00000100 	andeq	r0, r0, r0, lsl #2
 728:	02050000 	andeq	r0, r5, #0
 72c:	00015a24 	andeq	r5, r1, r4, lsr #20
 730:	010ae503 	tsteq	sl, r3, lsl #10
 734:	2f2f302f 	svccs	0x002f302f
 738:	2f2f2f31 	svccs	0x002f2f31
 73c:	312f302f 	teqcc	pc, pc, lsr #32
 740:	2f30312f 	svccs	0x0030312f
 744:	2f2f2f31 	svccs	0x002f2f31
 748:	2f303032 	svccs	0x00303032
 74c:	2f2f2f2f 	svccs	0x002f2f2f
 750:	2f2f312f 	svccs	0x002f312f
 754:	312f2f30 	teqcc	pc, r0, lsr pc	; <UNPREDICTABLE>
 758:	022f2f2f 	eoreq	r2, pc, #47, 30	; 0xbc
 75c:	01010002 	tsteq	r1, r2

Disassembly of section .debug_str:

00000000 <.debug_str>:
   0:	676e6f6c 	strbvs	r6, [lr, -ip, ror #30]!
   4:	6e6f6c20 	cdpvs	12, 6, cr6, cr15, cr0, {1}
   8:	6e692067 	cdpvs	0, 6, cr2, cr9, cr7, {3}
   c:	6c610074 	stclvs	0, cr0, [r1], #-464	; 0xfffffe30
  10:	656e6769 	strbvs	r6, [lr, #-1897]!	; 0xfffff897
  14:	73645f64 	cmnvc	r4, #100, 30	; 0x190
  18:	69730074 	ldmdbvs	r3!, {r2, r4, r5, r6}^
  1c:	745f657a 	ldrbvc	r6, [pc], #-1402	; 24 <_start-0x7fdc>
  20:	554e4700 	strbpl	r4, [lr, #-1792]	; 0xfffff900
  24:	34204320 	strtcc	r4, [r0], #-800	; 0xfffffce0
  28:	322e372e 	eorcc	r3, lr, #12058624	; 0xb80000
  2c:	63727300 	cmnvs	r2, #0, 6
  30:	6f6c0030 	svcvs	0x006c0030
  34:	6c20676e 	stcvs	7, cr6, [r0], #-440	; 0xfffffe48
  38:	20676e6f 	rsbcs	r6, r7, pc, ror #28
  3c:	69736e75 	ldmdbvs	r3!, {r0, r2, r4, r5, r6, r9, sl, fp, sp, lr}^
  40:	64656e67 	strbtvs	r6, [r5], #-3687	; 0xfffff199
  44:	746e6920 	strbtvc	r6, [lr], #-2336	; 0xfffff6e0
  48:	74736400 	ldrbtvc	r6, [r3], #-1024	; 0xfffffc00
  4c:	6e750030 	mrcvs	0, 3, r0, cr5, cr0, {1}
  50:	6e676973 	mcrvs	9, 3, r6, cr7, cr3, {3}
  54:	63206465 	teqvs	r0, #1694498816	; 0x65000000
  58:	00726168 	rsbseq	r6, r2, r8, ror #2
  5c:	67696c61 	strbvs	r6, [r9, -r1, ror #24]!
  60:	5f64656e 	svcpl	0x0064656e
  64:	00637273 	rsbeq	r7, r3, r3, ror r2
  68:	636d656d 	cmnvs	sp, #457179136	; 0x1b400000
  6c:	43007970 	movwmi	r7, #2416	; 0x970
  70:	736d5c3a 	cmnvc	sp, #14848	; 0x3a00
  74:	315c7379 	cmpcc	ip, r9, ror r3
  78:	685c302e 	ldmdavs	ip, {r1, r2, r3, r5, ip, sp}^
  7c:	5c656d6f 	stclpl	13, cr6, [r5], #-444	; 0xfffffe44
  80:	61676179 	smcvs	30233	; 0x7619
  84:	5c6f7472 	cfstrdpl	mvd7, [pc], #-456	; fffffec4 <_estack+0xf7fefec4>
  88:	6c77656e 	cfldr64vs	mvdx6, [r7], #-440	; 0xfffffe48
  8c:	622d6269 	eorvs	r6, sp, #-1879048186	; 0x90000006
  90:	646c6975 	strbtvs	r6, [ip], #-2421	; 0xfffff68b
  94:	6d72615c 	ldfvse	f6, [r2, #-368]!	; 0xfffffe90
  98:	6e6f6e2d 	cdpvs	14, 6, cr6, cr15, cr13, {1}
  9c:	61652d65 	cmnvs	r5, r5, ror #26
  a0:	6e5c6962 	cdpvs	9, 5, cr6, cr12, cr2, {3}
  a4:	696c7765 	stmdbvs	ip!, {r0, r2, r5, r6, r8, r9, sl, ip, sp, lr}^
  a8:	696c5c62 	stmdbvs	ip!, {r1, r5, r6, sl, fp, ip, lr}^
  ac:	6d5c6362 	ldclvs	3, cr6, [ip, #-392]	; 0xfffffe78
  b0:	69686361 	stmdbvs	r8!, {r0, r5, r6, r8, r9, sp, lr}^
  b4:	615c656e 	cmpvs	ip, lr, ror #10
  b8:	73006d72 	movwvc	r6, #3442	; 0xd72
  bc:	74726f68 	ldrbtvc	r6, [r2], #-3944	; 0xfffff098
  c0:	736e7520 	cmnvc	lr, #32, 10	; 0x8000000
  c4:	656e6769 	strbvs	r6, [lr, #-1897]!	; 0xfffff897
  c8:	6e692064 	cdpvs	0, 6, cr2, cr9, cr4, {3}
  cc:	2e2e0074 	mcrcs	0, 1, r0, cr14, cr4, {3}
  d0:	2f2e2e2f 	svccs	0x002e2e2f
  d4:	2e2f2e2e 	cdpcs	14, 2, cr2, cr15, cr14, {1}
  d8:	2e2e2f2e 	cdpcs	15, 2, cr2, cr14, cr14, {1}
  dc:	2f2e2e2f 	svccs	0x002e2e2f
  e0:	6c77656e 	cfldr64vs	mvdx6, [r7], #-440	; 0xfffffe48
  e4:	312d6269 	teqcc	sp, r9, ror #4
  e8:	2e30322e 	cdpcs	2, 3, cr3, cr0, cr14, {1}
  ec:	656e2f30 	strbvs	r2, [lr, #-3888]!	; 0xfffff0d0
  f0:	62696c77 	rsbvs	r6, r9, #30464	; 0x7700
  f4:	62696c2f 	rsbvs	r6, r9, #12032	; 0x2f00
  f8:	616d2f63 	cmnvs	sp, r3, ror #30
  fc:	6e696863 	cdpvs	8, 6, cr6, cr9, cr3, {3}
 100:	72612f65 	rsbvc	r2, r1, #404	; 0x194
 104:	656d2f6d 	strbvs	r2, [sp, #-3949]!	; 0xfffff093
 108:	7970636d 	ldmdbvc	r0!, {r0, r2, r3, r5, r6, r8, r9, sp, lr}^
 10c:	7574732d 	ldrbvc	r7, [r4, #-813]!	; 0xfffffcd3
 110:	00632e62 	rsbeq	r2, r3, r2, ror #28
 114:	306e656c 	rsbcc	r6, lr, ip, ror #10
 118:	6f687300 	svcvs	0x00687300
 11c:	69207472 	stmdbvs	r0!, {r1, r4, r5, r6, sl, ip, sp, lr}
 120:	7300746e 	movwvc	r7, #1134	; 0x46e
 124:	74657a69 	strbtvc	r7, [r5], #-2665	; 0xfffff597
 128:	00657079 	rsbeq	r7, r5, r9, ror r0
 12c:	6d5c3a43 	vldrvs	s7, [ip, #-268]	; 0xfffffef4
 130:	5c737973 	ldclpl	9, cr7, [r3], #-460	; 0xfffffe34
 134:	5c302e31 	ldcpl	14, cr2, [r0], #-196	; 0xffffff3c
 138:	656d6f68 	strbvs	r6, [sp, #-3944]!	; 0xfffff098
 13c:	6761795c 			; <UNDEFINED> instruction: 0x6761795c
 140:	6f747261 	svcvs	0x00747261
 144:	77656e5c 			; <UNDEFINED> instruction: 0x77656e5c
 148:	2d62696c 	stclcs	9, cr6, [r2, #-432]!	; 0xfffffe50
 14c:	6c697562 	cfstr64vs	mvdx7, [r9], #-392	; 0xfffffe78
 150:	72615c64 	rsbvc	r5, r1, #100, 24	; 0x6400
 154:	6f6e2d6d 	svcvs	0x006e2d6d
 158:	652d656e 	strvs	r6, [sp, #-1390]!	; 0xfffffa92
 15c:	5c696261 	sfmpl	f6, 2, [r9], #-388	; 0xfffffe7c
 160:	6c77656e 	cfldr64vs	mvdx6, [r7], #-440	; 0xfffffe48
 164:	6c5c6269 	lfmvs	f6, 2, [ip], {105}	; 0x69
 168:	5c636269 	sfmpl	f6, 2, [r3], #-420	; 0xfffffe5c
 16c:	69727473 	ldmdbvs	r2!, {r0, r1, r4, r5, r6, sl, ip, sp, lr}^
 170:	6100676e 	tstvs	r0, lr, ror #14
 174:	6e67696c 	cdpvs	9, 6, cr6, cr7, cr12, {3}
 178:	615f6465 	cmpvs	pc, r5, ror #8
 17c:	00726464 	rsbseq	r6, r2, r4, ror #8
 180:	2e2f2e2e 	cdpcs	14, 2, cr2, cr15, cr14, {1}
 184:	2e2e2f2e 	cdpcs	15, 2, cr2, cr14, cr14, {1}
 188:	2f2e2e2f 	svccs	0x002e2e2f
 18c:	6e2f2e2e 	cdpvs	14, 2, cr2, cr15, cr14, {1}
 190:	696c7765 	stmdbvs	ip!, {r0, r2, r5, r6, r8, r9, sl, ip, sp, lr}^
 194:	2e312d62 	cdpcs	13, 3, cr2, cr1, cr2, {3}
 198:	302e3032 	eorcc	r3, lr, r2, lsr r0
 19c:	77656e2f 	strbvc	r6, [r5, -pc, lsr #28]!
 1a0:	2f62696c 	svccs	0x0062696c
 1a4:	6362696c 	cmnvs	r2, #108, 18	; 0x1b0000
 1a8:	7274732f 	rsbsvc	r7, r4, #-1140850688	; 0xbc000000
 1ac:	2f676e69 	svccs	0x00676e69
 1b0:	736d656d 	cmnvc	sp, #457179136	; 0x1b400000
 1b4:	632e7465 	teqvs	lr, #1694498816	; 0x65000000
 1b8:	6d656d00 	stclvs	13, cr6, [r5, #-0]
 1bc:	00746573 	rsbseq	r6, r4, r3, ror r5
 1c0:	66667562 	strbtvs	r7, [r6], -r2, ror #10
 1c4:	Address 0x00000000000001c4 is out of bounds.


Disassembly of section .debug_frame:

00000000 <.debug_frame>:
   0:	0000000c 	andeq	r0, r0, ip
   4:	ffffffff 			; <UNDEFINED> instruction: 0xffffffff
   8:	7c020001 	stcvc	0, cr0, [r2], {1}
   c:	000d0c0e 	andeq	r0, sp, lr, lsl #24
  10:	00000018 	andeq	r0, r0, r8, lsl r0
  14:	00000000 	andeq	r0, r0, r0
  18:	00014e68 	andeq	r4, r1, r8, ror #28
  1c:	000000f4 	strdeq	r0, [r0], -r4
  20:	84100e44 	ldrhi	r0, [r0], #-3652	; 0xfffff1bc
  24:	86038504 	strhi	r8, [r3], -r4, lsl #10
  28:	00018702 	andeq	r8, r1, r2, lsl #14
  2c:	0000000c 	andeq	r0, r0, ip
  30:	ffffffff 			; <UNDEFINED> instruction: 0xffffffff
  34:	7c020001 	stcvc	0, cr0, [r2], {1}
  38:	000d0c0e 	andeq	r0, sp, lr, lsl #24
  3c:	00000014 	andeq	r0, r0, r4, lsl r0
  40:	0000002c 	andeq	r0, r0, ip, lsr #32
  44:	00014f5c 	andeq	r4, r1, ip, asr pc
  48:	000000f8 	strdeq	r0, [r0], -r8
  4c:	84080e44 	strhi	r0, [r8], #-3652	; 0xfffff1bc
  50:	00018502 	andeq	r8, r1, r2, lsl #10
  54:	0000000c 	andeq	r0, r0, ip
  58:	ffffffff 			; <UNDEFINED> instruction: 0xffffffff
  5c:	7c010001 	stcvc	0, cr0, [r1], {1}
  60:	000d0c0e 	andeq	r0, sp, lr, lsl #24
  64:	0000000c 	andeq	r0, r0, ip
  68:	00000054 	andeq	r0, r0, r4, asr r0
  6c:	00015054 	andeq	r5, r1, r4, asr r0
  70:	000000f4 	strdeq	r0, [r0], -r4
